
========================================================================

** ELF Header Information

    File Name: .\obj\LDROM_Bootloader.axf

    Machine class: ELFCLASS32 (32-bit)
    Data encoding: ELFDATA2LSB (Little endian)
    Header version: EV_CURRENT (Current version)
    Operating System ABI: none
    ABI Version: 0
    File Type: ET_EXEC (Executable) (2)
    Machine: EM_ARM (ARM)

    Image Entry point: 0x0010013d
    Flags: EF_ARM_HASENTRY + EF_ARM_ABI_FLOAT_SOFT (0x05000202)

    ARM ELF revision: 5 (ABI version 2)

    Conforms to Soft float procedure-call standard

    Built with
    Component: Arm Compiler for Embedded 6.22 Tool: armlink [5ee90200]

    Header size: 52 bytes (0x34)
    Program header entry size: 32 bytes (0x20)
    Section header entry size: 40 bytes (0x28)

    Program header entries: 1
    Section header entries: 17

    Program header offset: 48080 (0x0000bbd0)
    Section header offset: 48112 (0x0000bbf0)

    Section header string table index: 16

========================================================================

** Program header #0 (PT_LOAD) [PF_X + PF_W + PF_R + PF_ARM_ENTRY]
    Size : 4960 bytes (3832 bytes in file)
    Virtual address: 0x00100000 (Alignment 8)


========================================================================

** Section #1 'ER_RO' (SHT_PROGBITS) [SHF_ALLOC + SHF_EXECINSTR]
    Size   : 3828 bytes (alignment 4)
    Address: 0x00100000

    __Vectors
        0x00100000:    20000470    p..     DCD    536872048
        0x00100004:    0010013d    =...    DCD    1048893
        0x00100008:    00100145    E...    DCD    1048901
        0x0010000c:    00100147    G...    DCD    1048903
        0x00100010:    00000000    ....    DCD    0
        0x00100014:    00000000    ....    DCD    0
        0x00100018:    00000000    ....    DCD    0
        0x0010001c:    00000000    ....    DCD    0
        0x00100020:    00000000    ....    DCD    0
        0x00100024:    00000000    ....    DCD    0
        0x00100028:    00000000    ....    DCD    0
        0x0010002c:    00100156    V...    DCD    1048918
        0x00100030:    00000000    ....    DCD    0
        0x00100034:    00000000    ....    DCD    0
        0x00100038:    00100158    X...    DCD    1048920
        0x0010003c:    0010015a    Z...    DCD    1048922
        0x00100040:    0010015c    \...    DCD    1048924
        0x00100044:    0010015c    \...    DCD    1048924
        0x00100048:    0010015c    \...    DCD    1048924
        0x0010004c:    0010015c    \...    DCD    1048924
        0x00100050:    0010015c    \...    DCD    1048924
        0x00100054:    0010015c    \...    DCD    1048924
        0x00100058:    0010015c    \...    DCD    1048924
        0x0010005c:    0010015c    \...    DCD    1048924
        0x00100060:    0010015c    \...    DCD    1048924
        0x00100064:    0010015c    \...    DCD    1048924
        0x00100068:    0010015c    \...    DCD    1048924
        0x0010006c:    0010015c    \...    DCD    1048924
        0x00100070:    0010015c    \...    DCD    1048924
        0x00100074:    0010015c    \...    DCD    1048924
        0x00100078:    0010015c    \...    DCD    1048924
        0x0010007c:    0010015c    \...    DCD    1048924
        0x00100080:    0010015c    \...    DCD    1048924
        0x00100084:    0010015c    \...    DCD    1048924
        0x00100088:    0010015c    \...    DCD    1048924
        0x0010008c:    0010015c    \...    DCD    1048924
        0x00100090:    0010015c    \...    DCD    1048924
        0x00100094:    0010015c    \...    DCD    1048924
        0x00100098:    0010015c    \...    DCD    1048924
        0x0010009c:    0010015c    \...    DCD    1048924
        0x001000a0:    0010015c    \...    DCD    1048924
        0x001000a4:    0010015c    \...    DCD    1048924
        0x001000a8:    0010015c    \...    DCD    1048924
        0x001000ac:    0010015c    \...    DCD    1048924
        0x001000b0:    0010015c    \...    DCD    1048924
        0x001000b4:    0010015c    \...    DCD    1048924
        0x001000b8:    0010015c    \...    DCD    1048924
        0x001000bc:    0010015c    \...    DCD    1048924
        0x001000c0:    0010015c    \...    DCD    1048924
        0x001000c4:    0010015c    \...    DCD    1048924
        0x001000c8:    0010015c    \...    DCD    1048924
        0x001000cc:    0010015c    \...    DCD    1048924
        0x001000d0:    0010015c    \...    DCD    1048924
        0x001000d4:    0010015c    \...    DCD    1048924
        0x001000d8:    0010015c    \...    DCD    1048924
        0x001000dc:    0010015c    \...    DCD    1048924
        0x001000e0:    0010015c    \...    DCD    1048924
        0x001000e4:    0010015c    \...    DCD    1048924
        0x001000e8:    0010015c    \...    DCD    1048924
        0x001000ec:    0010015c    \...    DCD    1048924
        0x001000f0:    0010015c    \...    DCD    1048924
        0x001000f4:    0010015c    \...    DCD    1048924
        0x001000f8:    0010015c    \...    DCD    1048924
        0x001000fc:    0010015c    \...    DCD    1048924
        0x00100100:    001003d9    ....    DCD    1049561
        0x00100104:    0010015c    \...    DCD    1048924
        0x00100108:    0010015c    \...    DCD    1048924
        0x0010010c:    0010015c    \...    DCD    1048924
        0x00100110:    0010015c    \...    DCD    1048924
        0x00100114:    0010015c    \...    DCD    1048924
        0x00100118:    0010015c    \...    DCD    1048924
        0x0010011c:    0010015c    \...    DCD    1048924
        0x00100120:    0010015c    \...    DCD    1048924
        0x00100124:    0010015c    \...    DCD    1048924
    $t
    .ARM.Collect$$$$00000000
    .ARM.Collect$$$$00000001
    __Vectors_End
    __main
    _main_stk
        0x00100128:    4803        .H      LDR      r0,__lit__00000000 ; [0x100138] = 0x20000470
        0x0010012a:    4685        .F      MOV      sp,r0
    .ARM.Collect$$$$00000004
    _main_scatterload
        0x0010012c:    f000f828    ..(.    BL       __scatterload ; 0x100180
    .ARM.Collect$$$$00000008
    .ARM.Collect$$$$0000000A
    .ARM.Collect$$$$0000000B
    __main_after_scatterload
    _main_clock
    _main_cpp_init
    _main_init
        0x00100130:    4800        .H      LDR      r0,[pc,#0] ; [0x100134] = 0x10071d
        0x00100132:    4700        .G      BX       r0
    $d
        0x00100134:    0010071d    ....    DCD    1050397
    .ARM.Collect$$$$00002712
    __lit__00000000
    .ARM.Collect$$$$0000000D
    .ARM.Collect$$$$0000000F
    __rt_final_cpp
    __rt_final_exit
        0x00100138:    20000470    p..     DCD    536872048
    $t.0
    Reset_Handler
        0x0010013c:    480c        .H      LDR      r0,[pc,#48] ; [0x100170] = 0x1006e5
        0x0010013e:    4780        .G      BLX      r0
        0x00100140:    480c        .H      LDR      r0,[pc,#48] ; [0x100174] = 0x100129
        0x00100142:    4700        .G      BX       r0
    NMI_Handler
        0x00100144:    e7fe        ..      B        NMI_Handler ; 0x100144
    HardFault_Handler
        0x00100146:    4670        pF      MOV      r0,lr
        0x00100148:    f3ef8108    ....    MRS      r1,MSP
        0x0010014c:    f3ef8209    ....    MRS      r2,PSP
        0x00100150:    4b09        .K      LDR      r3,[pc,#36] ; [0x100178] = 0x100641
        0x00100152:    4798        .G      BLX      r3
        0x00100154:    4700        .G      BX       r0
    SVC_Handler
        0x00100156:    e7fe        ..      B        0x100156 ; 0x100156
    PendSV_Handler
        0x00100158:    e7fe        ..      B        0x100158 ; 0x100158
    SysTick_Handler
        0x0010015a:    e7fe        ..      B        0x10015a ; 0x10015a
    Default_Handler
    ACMP01_IRQHandler
    ADC0_IRQHandler
    BOD_IRQHandler
    BPWM0_IRQHandler
    BRAKE0_IRQHandler
    CANFD01_IRQHandler
    CANFD10_IRQHandler
    CANFD11_IRQHandler
    CANFD20_IRQHandler
    CANFD21_IRQHandler
    CKFAIL_IRQHandler
    DEFAULT_IRQHandler
    EINT0_IRQHandler
    EINT1_IRQHandler
    EINT2_IRQHandler
    EINT3_IRQHandler
    EINT4_IRQHandler
    EINT5_IRQHandler
    GPA_IRQHandler
    GPB_IRQHandler
    GPC_IRQHandler
    GPD_IRQHandler
    GPF_IRQHandler
    I2C0_IRQHandler
    IRC_IRQHandler
    ISP_IRQHandler
    LLSI0_IRQHandler
    LLSI1_IRQHandler
    PDMA0_IRQHandler
    PWM0P0_IRQHandler
    PWM0P1_IRQHandler
    PWM0P2_IRQHandler
    PWRWU_IRQHandler
    RAMPE_IRQHandler
    SPI0_IRQHandler
    TMR0_IRQHandler
    TMR1_IRQHandler
    TMR2_IRQHandler
    TMR3_IRQHandler
    UART0_IRQHandler
    UART1_IRQHandler
    USCI0_IRQHandler
    USCI1_IRQHandler
    WDT_IRQHandler
    WWDT_IRQHandler
        0x0010015c:    e7fe        ..      B        0x10015c ; 0x10015c
        0x0010015e:    46c0        .F      MOV      r8,r8
    SH_DoCommand
        0x00100160:    beab        ..      BKPT     #0xab
        0x00100162:    4b06        .K      LDR      r3,[pc,#24] ; [0x10017c] = 0x100643
        0x00100164:    4674        tF      MOV      r4,lr
        0x00100166:    4798        .G      BLX      r3
        0x00100168:    4720         G      BX       r4
        0x0010016a:    46c0        .F      MOV      r8,r8
    __PC
        0x0010016c:    4670        pF      MOV      r0,lr
        0x0010016e:    47f0        .G      BLX      lr
    $d.1
        0x00100170:    001006e5    ....    DCD    1050341
        0x00100174:    00100129    )...    DCD    1048873
        0x00100178:    00100641    A...    DCD    1050177
        0x0010017c:    00100643    C...    DCD    1050179
    $t
    .text
    __scatterload
    __scatterload_rt2
        0x00100180:    b51c        ..      PUSH     {r2-r4,lr}
        0x00100182:    4809        .H      LDR      r0,[pc,#36] ; [0x1001a8] = 0x100ed4
        0x00100184:    9000        ..      STR      r0,[sp,#0]
        0x00100186:    4809        .H      LDR      r0,[pc,#36] ; [0x1001ac] = 0x100ef4
        0x00100188:    9001        ..      STR      r0,[sp,#4]
        0x0010018a:    4605        .F      MOV      r5,r0
        0x0010018c:    2601        .&      MOVS     r6,#1
        0x0010018e:    9c00        ..      LDR      r4,[sp,#0]
        0x00100190:    e005        ..      B        0x10019e ; __scatterload + 30
        0x00100192:    68e3        .h      LDR      r3,[r4,#0xc]
        0x00100194:    cc07        ..      LDM      r4!,{r0-r2}
        0x00100196:    4333        3C      ORRS     r3,r3,r6
        0x00100198:    3c0c        .<      SUBS     r4,r4,#0xc
        0x0010019a:    4798        .G      BLX      r3
        0x0010019c:    3410        .4      ADDS     r4,r4,#0x10
        0x0010019e:    42ac        .B      CMP      r4,r5
        0x001001a0:    d3f7        ..      BCC      0x100192 ; __scatterload + 18
        0x001001a2:    f7ffffc5    ....    BL       __main_after_scatterload ; 0x100130
    $d
        0x001001a6:    0000        ..      DCW    0
        0x001001a8:    00100ed4    ....    DCD    1052372
        0x001001ac:    00100ef4    ....    DCD    1052404
    $t
    .text
    __aeabi_memset
    __aeabi_memset4
    __aeabi_memset8
        0x001001b0:    b2d2        ..      UXTB     r2,r2
        0x001001b2:    e001        ..      B        0x1001b8 ; __aeabi_memset + 8
        0x001001b4:    7002        .p      STRB     r2,[r0,#0]
        0x001001b6:    1c40        @.      ADDS     r0,r0,#1
        0x001001b8:    1e49        I.      SUBS     r1,r1,#1
        0x001001ba:    d2fb        ..      BCS      0x1001b4 ; __aeabi_memset + 4
        0x001001bc:    4770        pG      BX       lr
    __aeabi_memclr
    __aeabi_memclr4
    __aeabi_memclr8
        0x001001be:    2200        ."      MOVS     r2,#0
        0x001001c0:    e7f6        ..      B        __aeabi_memset ; 0x1001b0
    _memset$wrapper
        0x001001c2:    b510        ..      PUSH     {r4,lr}
        0x001001c4:    4613        .F      MOV      r3,r2
        0x001001c6:    460a        .F      MOV      r2,r1
        0x001001c8:    4604        .F      MOV      r4,r0
        0x001001ca:    4619        .F      MOV      r1,r3
        0x001001cc:    f7fffff0    ....    BL       __aeabi_memset ; 0x1001b0
        0x001001d0:    4620         F      MOV      r0,r4
        0x001001d2:    bd10        ..      POP      {r4,pc}
    .text
    __aeabi_fmul
        0x001001d4:    4602        .F      MOV      r2,r0
        0x001001d6:    b570        p.      PUSH     {r4-r6,lr}
        0x001001d8:    404a        J@      EORS     r2,r2,r1
        0x001001da:    0fd3        ..      LSRS     r3,r2,#31
        0x001001dc:    07db        ..      LSLS     r3,r3,#31
        0x001001de:    0040        @.      LSLS     r0,r0,#1
        0x001001e0:    d02d        -.      BEQ      0x10023e ; __aeabi_fmul + 106
        0x001001e2:    004a        J.      LSLS     r2,r1,#1
        0x001001e4:    d02a        *.      BEQ      0x10023c ; __aeabi_fmul + 104
        0x001001e6:    0e01        ..      LSRS     r1,r0,#24
        0x001001e8:    0e14        ..      LSRS     r4,r2,#24
        0x001001ea:    0200        ..      LSLS     r0,r0,#8
        0x001001ec:    0212        ..      LSLS     r2,r2,#8
        0x001001ee:    1909        ..      ADDS     r1,r1,r4
        0x001001f0:    0a40        @.      LSRS     r0,r0,#9
        0x001001f2:    0a52        R.      LSRS     r2,r2,#9
        0x001001f4:    1884        ..      ADDS     r4,r0,r2
        0x001001f6:    01e5        ..      LSLS     r5,r4,#7
        0x001001f8:    4604        .F      MOV      r4,r0
        0x001001fa:    4354        TC      MULS     r4,r2,r4
        0x001001fc:    0a00        ..      LSRS     r0,r0,#8
        0x001001fe:    0a12        ..      LSRS     r2,r2,#8
        0x00100200:    042e        ..      LSLS     r6,r5,#16
        0x00100202:    4350        PC      MULS     r0,r2,r0
        0x00100204:    19a4        ..      ADDS     r4,r4,r6
        0x00100206:    1942        B.      ADDS     r2,r0,r5
        0x00100208:    0c20         .      LSRS     r0,r4,#16
        0x0010020a:    43c5        .C      MVNS     r5,r0
        0x0010020c:    18aa        ..      ADDS     r2,r5,r2
        0x0010020e:    0c12        ..      LSRS     r2,r2,#16
        0x00100210:    2501        .%      MOVS     r5,#1
        0x00100212:    03ad        ..      LSLS     r5,r5,#14
        0x00100214:    1c52        R.      ADDS     r2,r2,#1
        0x00100216:    1952        R.      ADDS     r2,r2,r5
        0x00100218:    0412        ..      LSLS     r2,r2,#16
        0x0010021a:    397f        .9      SUBS     r1,r1,#0x7f
        0x0010021c:    0424        $.      LSLS     r4,r4,#16
        0x0010021e:    d000        ..      BEQ      0x100222 ; __aeabi_fmul + 78
        0x00100220:    1c52        R.      ADDS     r2,r2,#1
        0x00100222:    4310        .C      ORRS     r0,r0,r2
        0x00100224:    d401        ..      BMI      0x10022a ; __aeabi_fmul + 86
        0x00100226:    0040        @.      LSLS     r0,r0,#1
        0x00100228:    1e49        I.      SUBS     r1,r1,#1
        0x0010022a:    b2c2        ..      UXTB     r2,r0
        0x0010022c:    060c        ..      LSLS     r4,r1,#24
        0x0010022e:    09c0        ..      LSRS     r0,r0,#7
        0x00100230:    1820         .      ADDS     r0,r4,r0
        0x00100232:    1c40        @.      ADDS     r0,r0,#1
        0x00100234:    0840        @.      LSRS     r0,r0,#1
        0x00100236:    2a80        .*      CMP      r2,#0x80
        0x00100238:    d002        ..      BEQ      0x100240 ; __aeabi_fmul + 108
        0x0010023a:    e003        ..      B        0x100244 ; __aeabi_fmul + 112
        0x0010023c:    2000        .       MOVS     r0,#0
        0x0010023e:    bd70        p.      POP      {r4-r6,pc}
        0x00100240:    0840        @.      LSRS     r0,r0,#1
        0x00100242:    0040        @.      LSLS     r0,r0,#1
        0x00100244:    2900        .)      CMP      r1,#0
        0x00100246:    da00        ..      BGE      0x10024a ; __aeabi_fmul + 118
        0x00100248:    2000        .       MOVS     r0,#0
        0x0010024a:    4318        .C      ORRS     r0,r0,r3
        0x0010024c:    bd70        p.      POP      {r4-r6,pc}
    .text
    __aeabi_ui2f
        0x0010024e:    b510        ..      PUSH     {r4,lr}
        0x00100250:    2200        ."      MOVS     r2,#0
        0x00100252:    2396        .#      MOVS     r3,#0x96
        0x00100254:    4611        .F      MOV      r1,r2
        0x00100256:    f000f822    ..".    BL       _float_epilogue ; 0x10029e
        0x0010025a:    bd10        ..      POP      {r4,pc}
    .text
    __aeabi_f2iz
        0x0010025c:    0fc2        ..      LSRS     r2,r0,#31
        0x0010025e:    0041        A.      LSLS     r1,r0,#1
        0x00100260:    0240        @.      LSLS     r0,r0,#9
        0x00100262:    2301        .#      MOVS     r3,#1
        0x00100264:    0a40        @.      LSRS     r0,r0,#9
        0x00100266:    05db        ..      LSLS     r3,r3,#23
        0x00100268:    07d2        ..      LSLS     r2,r2,#31
        0x0010026a:    0e09        ..      LSRS     r1,r1,#24
        0x0010026c:    18c0        ..      ADDS     r0,r0,r3
        0x0010026e:    297f        .)      CMP      r1,#0x7f
        0x00100270:    da01        ..      BGE      0x100276 ; __aeabi_f2iz + 26
        0x00100272:    2000        .       MOVS     r0,#0
        0x00100274:    4770        pG      BX       lr
        0x00100276:    2996        .)      CMP      r1,#0x96
        0x00100278:    dc03        ..      BGT      0x100282 ; __aeabi_f2iz + 38
        0x0010027a:    2396        .#      MOVS     r3,#0x96
        0x0010027c:    1a59        Y.      SUBS     r1,r3,r1
        0x0010027e:    40c8        .@      LSRS     r0,r0,r1
        0x00100280:    e001        ..      B        0x100286 ; __aeabi_f2iz + 42
        0x00100282:    3996        .9      SUBS     r1,r1,#0x96
        0x00100284:    4088        .@      LSLS     r0,r0,r1
        0x00100286:    2a00        .*      CMP      r2,#0
        0x00100288:    d0f4        ..      BEQ      0x100274 ; __aeabi_f2iz + 24
        0x0010028a:    4240        @B      RSBS     r0,r0,#0
        0x0010028c:    4770        pG      BX       lr
    .text
    .text
    __I$use$fp
    _float_round
        0x0010028e:    2900        .)      CMP      r1,#0
        0x00100290:    da04        ..      BGE      0x10029c ; __I$use$fp + 14
        0x00100292:    1c40        @.      ADDS     r0,r0,#1
        0x00100294:    0049        I.      LSLS     r1,r1,#1
        0x00100296:    d101        ..      BNE      0x10029c ; __I$use$fp + 14
        0x00100298:    0840        @.      LSRS     r0,r0,#1
        0x0010029a:    0040        @.      LSLS     r0,r0,#1
        0x0010029c:    4770        pG      BX       lr
    _float_epilogue
        0x0010029e:    b470        p.      PUSH     {r4-r6}
        0x001002a0:    2400        .$      MOVS     r4,#0
        0x001002a2:    0c05        ..      LSRS     r5,r0,#16
        0x001002a4:    d105        ..      BNE      0x1002b2 ; _float_epilogue + 20
        0x001002a6:    2410        .$      MOVS     r4,#0x10
        0x001002a8:    0400        ..      LSLS     r0,r0,#16
        0x001002aa:    d102        ..      BNE      0x1002b2 ; _float_epilogue + 20
        0x001002ac:    2900        .)      CMP      r1,#0
        0x001002ae:    d021        !.      BEQ      0x1002f4 ; _float_epilogue + 86
        0x001002b0:    2411        .$      MOVS     r4,#0x11
        0x001002b2:    0e05        ..      LSRS     r5,r0,#24
        0x001002b4:    d101        ..      BNE      0x1002ba ; _float_epilogue + 28
        0x001002b6:    0200        ..      LSLS     r0,r0,#8
        0x001002b8:    3408        .4      ADDS     r4,r4,#8
        0x001002ba:    0f05        ..      LSRS     r5,r0,#28
        0x001002bc:    d101        ..      BNE      0x1002c2 ; _float_epilogue + 36
        0x001002be:    0100        ..      LSLS     r0,r0,#4
        0x001002c0:    1d24        $.      ADDS     r4,r4,#4
        0x001002c2:    0f85        ..      LSRS     r5,r0,#30
        0x001002c4:    d101        ..      BNE      0x1002ca ; _float_epilogue + 44
        0x001002c6:    0080        ..      LSLS     r0,r0,#2
        0x001002c8:    1ca4        ..      ADDS     r4,r4,#2
        0x001002ca:    2800        .(      CMP      r0,#0
        0x001002cc:    db01        ..      BLT      0x1002d2 ; _float_epilogue + 52
        0x001002ce:    0040        @.      LSLS     r0,r0,#1
        0x001002d0:    1c64        d.      ADDS     r4,r4,#1
        0x001002d2:    2900        .)      CMP      r1,#0
        0x001002d4:    d008        ..      BEQ      0x1002e8 ; _float_epilogue + 74
        0x001002d6:    2520         %      MOVS     r5,#0x20
        0x001002d8:    1b2e        ..      SUBS     r6,r5,r4
        0x001002da:    460d        .F      MOV      r5,r1
        0x001002dc:    40f5        .@      LSRS     r5,r5,r6
        0x001002de:    40a1        .@      LSLS     r1,r1,r4
        0x001002e0:    d000        ..      BEQ      0x1002e4 ; _float_epilogue + 70
        0x001002e2:    2101        .!      MOVS     r1,#1
        0x001002e4:    4329        )C      ORRS     r1,r1,r5
        0x001002e6:    4308        .C      ORRS     r0,r0,r1
        0x001002e8:    0601        ..      LSLS     r1,r0,#24
        0x001002ea:    1b1b        ..      SUBS     r3,r3,r4
        0x001002ec:    0a00        ..      LSRS     r0,r0,#8
        0x001002ee:    1ddb        ..      ADDS     r3,r3,#7
        0x001002f0:    d502        ..      BPL      0x1002f8 ; _float_epilogue + 90
        0x001002f2:    2000        .       MOVS     r0,#0
        0x001002f4:    bc70        p.      POP      {r4-r6}
        0x001002f6:    4770        pG      BX       lr
        0x001002f8:    05db        ..      LSLS     r3,r3,#23
        0x001002fa:    1818        ..      ADDS     r0,r3,r0
        0x001002fc:    1880        ..      ADDS     r0,r0,r2
        0x001002fe:    2900        .)      CMP      r1,#0
        0x00100300:    daf8        ..      BGE      0x1002f4 ; _float_epilogue + 86
        0x00100302:    1c40        @.      ADDS     r0,r0,#1
        0x00100304:    0049        I.      LSLS     r1,r1,#1
        0x00100306:    d1f5        ..      BNE      0x1002f4 ; _float_epilogue + 86
        0x00100308:    bc70        p.      POP      {r4-r6}
        0x0010030a:    0840        @.      LSRS     r0,r0,#1
        0x0010030c:    0040        @.      LSLS     r0,r0,#1
        0x0010030e:    4770        pG      BX       lr
    $t.10
    App_IsValid
        0x00100310:    b5f8        ..      PUSH     {r3-r7,lr}
        0x00100312:    2600        .&      MOVS     r6,#0
        0x00100314:    4c20         L      LDR      r4,[pc,#128] ; [0x100398] = 0x100615
        0x00100316:    4630        0F      MOV      r0,r6
        0x00100318:    47a0        .G      BLX      r4
        0x0010031a:    4605        .F      MOV      r5,r0
        0x0010031c:    2004        .       MOVS     r0,#4
        0x0010031e:    47a0        .G      BLX      r4
        0x00100320:    4607        .F      MOV      r7,r0
        0x00100322:    48a2        .H      LDR      r0,[pc,#648] ; [0x1005ac] = 0xfffc
        0x00100324:    47a0        .G      BLX      r4
        0x00100326:    0f69        i.      LSRS     r1,r5,#29
        0x00100328:    d033        3.      BEQ      0x100392 ; App_IsValid + 130
        0x0010032a:    491c        .I      LDR      r1,[pc,#112] ; [0x10039c] = 0x20005fff
        0x0010032c:    428d        .B      CMP      r5,r1
        0x0010032e:    d830        0.      BHI      0x100392 ; App_IsValid + 130
        0x00100330:    9000        ..      STR      r0,[sp,#0]
        0x00100332:    4c9e        .L      LDR      r4,[pc,#632] ; [0x1005ac] = 0xfffc
        0x00100334:    1ce0        ..      ADDS     r0,r4,#3
        0x00100336:    4287        .B      CMP      r7,r0
        0x00100338:    d82b        +.      BHI      0x100392 ; App_IsValid + 130
        0x0010033a:    07f8        ..      LSLS     r0,r7,#31
        0x0010033c:    d029        ).      BEQ      0x100392 ; App_IsValid + 130
        0x0010033e:    9800        ..      LDR      r0,[sp,#0]
        0x00100340:    1c40        @.      ADDS     r0,r0,#1
        0x00100342:    2802        .(      CMP      r0,#2
        0x00100344:    d325        %.      BCC      0x100392 ; App_IsValid + 130
        0x00100346:    2600        .&      MOVS     r6,#0
        0x00100348:    43f5        .C      MVNS     r5,r6
        0x0010034a:    4f15        .O      LDR      r7,[pc,#84] ; [0x1003a0] = 0xedb88320
        0x0010034c:    4634        4F      MOV      r4,r6
        0x0010034e:    4897        .H      LDR      r0,[pc,#604] ; [0x1005ac] = 0xfffc
        0x00100350:    4286        .B      CMP      r6,r0
        0x00100352:    d219        ..      BCS      0x100388 ; App_IsValid + 120
        0x00100354:    4630        0F      MOV      r0,r6
        0x00100356:    f000f95d    ..].    BL       FMC_Read ; 0x100614
        0x0010035a:    4621        !F      MOV      r1,r4
        0x0010035c:    2904        .)      CMP      r1,#4
        0x0010035e:    d011        ..      BEQ      0x100384 ; App_IsValid + 116
        0x00100360:    00ca        ..      LSLS     r2,r1,#3
        0x00100362:    4603        .F      MOV      r3,r0
        0x00100364:    40d3        .@      LSRS     r3,r3,r2
        0x00100366:    b2da        ..      UXTB     r2,r3
        0x00100368:    406a        j@      EORS     r2,r2,r5
        0x0010036a:    2300        .#      MOVS     r3,#0
        0x0010036c:    2b07        .+      CMP      r3,#7
        0x0010036e:    d806        ..      BHI      0x10037e ; App_IsValid + 110
        0x00100370:    0855        U.      LSRS     r5,r2,#1
        0x00100372:    07d2        ..      LSLS     r2,r2,#31
        0x00100374:    d000        ..      BEQ      0x100378 ; App_IsValid + 104
        0x00100376:    407d        }@      EORS     r5,r5,r7
        0x00100378:    462a        *F      MOV      r2,r5
        0x0010037a:    1c5b        [.      ADDS     r3,r3,#1
        0x0010037c:    e7f6        ..      B        0x10036c ; App_IsValid + 92
        0x0010037e:    1c49        I.      ADDS     r1,r1,#1
        0x00100380:    4615        .F      MOV      r5,r2
        0x00100382:    e7eb        ..      B        0x10035c ; App_IsValid + 76
        0x00100384:    1d36        6.      ADDS     r6,r6,#4
        0x00100386:    e7e2        ..      B        0x10034e ; App_IsValid + 62
        0x00100388:    9800        ..      LDR      r0,[sp,#0]
        0x0010038a:    4045        E@      EORS     r5,r5,r0
        0x0010038c:    1c68        h.      ADDS     r0,r5,#1
        0x0010038e:    4246        FB      RSBS     r6,r0,#0
        0x00100390:    4146        FA      ADCS     r6,r6,r0
        0x00100392:    4630        0F      MOV      r0,r6
        0x00100394:    bdf8        ..      POP      {r3-r7,pc}
        0x00100396:    46c0        .F      MOV      r8,r8
    $d.11
    __arm_cp.5_0
        0x00100398:    00100615    ....    DCD    1050133
    __arm_cp.5_2
        0x0010039c:    20005fff    ._.     DCD    536895487
    __arm_cp.5_3
        0x001003a0:    edb88320     ...    DCD    3988292384
    $t.12
    Boot_JumpToApplication
        0x001003a4:    2101        .!      MOVS     r1,#1
        0x001003a6:    f3818810    ....    MSR      PRIMASK,r1
        0x001003aa:    48cd        .H      LDR      r0,[pc,#820] ; [0x1006e0] = 0x20000000
        0x001003ac:    6802        .h      LDR      r2,[r0,#0]
        0x001003ae:    48a3        .H      LDR      r0,[pc,#652] ; [0x10063c] = 0x4000c004
        0x001003b0:    232e        .#      MOVS     r3,#0x2e
        0x001003b2:    6083        .`      STR      r3,[r0,#8]
        0x001003b4:    2300        .#      MOVS     r3,#0
        0x001003b6:    6003        .`      STR      r3,[r0,#0]
        0x001003b8:    60c1        .`      STR      r1,[r0,#0xc]
        0x001003ba:    08d1        ..      LSRS     r1,r2,#3
        0x001003bc:    1c49        I.      ADDS     r1,r1,#1
        0x001003be:    68c2        .h      LDR      r2,[r0,#0xc]
        0x001003c0:    b112        ..      CBZ      r2,0x1003c8 ; Boot_JumpToApplication + 36
        0x001003c2:    1e49        I.      SUBS     r1,r1,#1
        0x001003c4:    2900        .)      CMP      r1,#0
        0x001003c6:    dcfa        ..      BGT      0x1003be ; Boot_JumpToApplication + 26
        0x001003c8:    4802        .H      LDR      r0,[pc,#8] ; [0x1003d4] = 0x40000008
        0x001003ca:    6801        .h      LDR      r1,[r0,#0]
        0x001003cc:    2202        ."      MOVS     r2,#2
        0x001003ce:    430a        .C      ORRS     r2,r2,r1
        0x001003d0:    6002        .`      STR      r2,[r0,#0]
        0x001003d2:    e7fe        ..      B        0x1003d2 ; Boot_JumpToApplication + 46
    $d.13
    __arm_cp.6_2
        0x001003d4:    40000008    ...@    DCD    1073741832
    $t.3
    CANFD00_IRQHandler
        0x001003d8:    b5f0        ..      PUSH     {r4-r7,lr}
        0x001003da:    482a        *H      LDR      r0,[pc,#168] ; [0x100484] = 0x40020050
        0x001003dc:    6801        .h      LDR      r1,[r0,#0]
        0x001003de:    07c9        ..      LSLS     r1,r1,#31
        0x001003e0:    d04e        N.      BEQ      0x100480 ; CANFD00_IRQHandler + 168
        0x001003e2:    6801        .h      LDR      r1,[r0,#0]
        0x001003e4:    4a28        (J      LDR      r2,[pc,#160] ; [0x100488] = 0x40001
        0x001003e6:    430a        .C      ORRS     r2,r2,r1
        0x001003e8:    6002        .`      STR      r2,[r0,#0]
        0x001003ea:    6d41        Am      LDR      r1,[r0,#0x54]
        0x001003ec:    0649        I.      LSLS     r1,r1,#25
        0x001003ee:    d044        D.      BEQ      0x10047a ; CANFD00_IRQHandler + 162
        0x001003f0:    6d41        Am      LDR      r1,[r0,#0x54]
        0x001003f2:    0489        ..      LSLS     r1,r1,#18
        0x001003f4:    0e89        ..      LSRS     r1,r1,#26
        0x001003f6:    2248        H"      MOVS     r2,#0x48
        0x001003f8:    434a        JC      MULS     r2,r1,r2
        0x001003fa:    6d03        .m      LDR      r3,[r0,#0x50]
        0x001003fc:    b29b        ..      UXTH     r3,r3
        0x001003fe:    189b        ..      ADDS     r3,r3,r2
        0x00100400:    4c22        "L      LDR      r4,[pc,#136] ; [0x10048c] = 0x40020200
        0x00100402:    591e        .Y      LDR      r6,[r3,r4]
        0x00100404:    0ff5        ..      LSRS     r5,r6,#31
        0x00100406:    275f        _'      MOVS     r7,#0x5f
        0x00100408:    4a21        !J      LDR      r2,[pc,#132] ; [0x100490] = 0x20000008
        0x0010040a:    55d5        .U      STRB     r5,[r2,r7]
        0x0010040c:    00b5        ..      LSLS     r5,r6,#2
        0x0010040e:    0fed        ..      LSRS     r5,r5,#31
        0x00100410:    7415        .t      STRB     r5,[r2,#0x10]
        0x00100412:    2501        .%      MOVS     r5,#1
        0x00100414:    07ad        ..      LSLS     r5,r5,#30
        0x00100416:    4035        5@      ANDS     r5,r5,r6
        0x00100418:    d003        ..      BEQ      0x100422 ; CANFD00_IRQHandler + 74
        0x0010041a:    2707        .'      MOVS     r7,#7
        0x0010041c:    077f        ..      LSLS     r7,r7,#29
        0x0010041e:    43be        .C      BICS     r6,r6,r7
        0x00100420:    e001        ..      B        0x100426 ; CANFD00_IRQHandler + 78
        0x00100422:    00f6        ..      LSLS     r6,r6,#3
        0x00100424:    0d76        v.      LSRS     r6,r6,#21
        0x00100426:    6156        Va      STR      r6,[r2,#0x14]
        0x00100428:    191b        ..      ADDS     r3,r3,r4
        0x0010042a:    685c        \h      LDR      r4,[r3,#4]
        0x0010042c:    02a6        ..      LSLS     r6,r4,#10
        0x0010042e:    0ff6        ..      LSRS     r6,r6,#31
        0x00100430:    275d        ]'      MOVS     r7,#0x5d
        0x00100432:    55d6        .U      STRB     r6,[r2,r7]
        0x00100434:    02e6        ..      LSLS     r6,r4,#11
        0x00100436:    0ff6        ..      LSRS     r6,r6,#31
        0x00100438:    275e        ^'      MOVS     r7,#0x5e
        0x0010043a:    55d6        .U      STRB     r6,[r2,r7]
        0x0010043c:    0fad        ..      LSRS     r5,r5,#30
        0x0010043e:    7115        .q      STRB     r5,[r2,#4]
        0x00100440:    0324        $.      LSLS     r4,r4,#12
        0x00100442:    0f24        $.      LSRS     r4,r4,#28
        0x00100444:    2c09        .,      CMP      r4,#9
        0x00100446:    d307        ..      BCC      0x100458 ; CANFD00_IRQHandler + 128
        0x00100448:    3c09        .<      SUBS     r4,r4,#9
        0x0010044a:    2c05        .,      CMP      r4,#5
        0x0010044c:    d803        ..      BHI      0x100456 ; CANFD00_IRQHandler + 126
        0x0010044e:    b2e4        ..      UXTB     r4,r4
        0x00100450:    a510        ..      ADR      r5,{pc}+0x44 ; 0x100494
        0x00100452:    5d2c        ,]      LDRB     r4,[r5,r4]
        0x00100454:    e000        ..      B        0x100458 ; CANFD00_IRQHandler + 128
        0x00100456:    2440        @$      MOVS     r4,#0x40
        0x00100458:    6194        .a      STR      r4,[r2,#0x18]
        0x0010045a:    3308        .3      ADDS     r3,r3,#8
        0x0010045c:    2500        .%      MOVS     r5,#0
        0x0010045e:    42a5        .B      CMP      r5,r4
        0x00100460:    d205        ..      BCS      0x10046e ; CANFD00_IRQHandler + 150
        0x00100462:    5d5c        \]      LDRB     r4,[r3,r5]
        0x00100464:    1956        V.      ADDS     r6,r2,r5
        0x00100466:    7734        4w      STRB     r4,[r6,#0x1c]
        0x00100468:    1c6d        m.      ADDS     r5,r5,#1
        0x0010046a:    6994        .i      LDR      r4,[r2,#0x18]
        0x0010046c:    e7f7        ..      B        0x10045e ; CANFD00_IRQHandler + 134
        0x0010046e:    6581        .e      STR      r1,[r0,#0x58]
        0x00100470:    6d41        Am      LDR      r1,[r0,#0x54]
        0x00100472:    0189        ..      LSLS     r1,r1,#6
        0x00100474:    d501        ..      BPL      0x10047a ; CANFD00_IRQHandler + 162
        0x00100476:    2108        .!      MOVS     r1,#8
        0x00100478:    6001        .`      STR      r1,[r0,#0]
        0x0010047a:    4805        .H      LDR      r0,[pc,#20] ; [0x100490] = 0x20000008
        0x0010047c:    2101        .!      MOVS     r1,#1
        0x0010047e:    7001        .p      STRB     r1,[r0,#0]
        0x00100480:    bdf0        ..      POP      {r4-r7,pc}
        0x00100482:    46c0        .F      MOV      r8,r8
    $d.4
    __arm_cp.2_0
        0x00100484:    40020050    P..@    DCD    1073872976
    __arm_cp.2_1
        0x00100488:    00040001    ....    DCD    262145
    __arm_cp.2_2
        0x0010048c:    40020200    ...@    DCD    1073873408
    __arm_cp.2_3
        0x00100490:    20000008    ...     DCD    536870920
        0x00100494:    1814100c    ....    DCD    403968012
        0x00100498:    00003020     0..    DCD    12320
    $t.22
    CANFD_GetSegments
        0x0010049c:    b5f0        ..      PUSH     {r4-r7,lr}
        0x0010049e:    b085        ..      SUB      sp,sp,#0x14
        0x001004a0:    9304        ..      STR      r3,[sp,#0x10]
        0x001004a2:    4616        .F      MOV      r6,r2
        0x001004a4:    9102        ..      STR      r1,[sp,#8]
        0x001004a6:    9d0a        ..      LDR      r5,[sp,#0x28]
        0x001004a8:    2400        .$      MOVS     r4,#0
        0x001004aa:    71ec        .q      STRB     r4,[r5,#7]
        0x001004ac:    1d11        ..      ADDS     r1,r2,#4
        0x001004ae:    2205        ."      MOVS     r2,#5
        0x001004b0:    9203        ..      STR      r2,[sp,#0xc]
        0x001004b2:    fbb1f1f2    ....    UDIV     r1,r1,r2
        0x001004b6:    7129        )q      STRB     r1,[r5,#4]
        0x001004b8:    491f        .I      LDR      r1,[pc,#124] ; [0x100538] = 0xc34ff
        0x001004ba:    4288        .B      CMP      r0,r1
        0x001004bc:    d801        ..      BHI      0x1004c2 ; CANFD_GetSegments + 38
        0x001004be:    4f20         O      LDR      r7,[pc,#128] ; [0x100540] = 0x3f600000
        0x001004c0:    e000        ..      B        0x1004c4 ; CANFD_GetSegments + 40
        0x001004c2:    4f1e        .O      LDR      r7,[pc,#120] ; [0x10053c] = 0x3f4ccccd
        0x001004c4:    21fd        .!      MOVS     r1,#0xfd
        0x001004c6:    4a1f        .J      LDR      r2,[pc,#124] ; [0x100544] = 0xf423f
        0x001004c8:    4290        .B      CMP      r0,r2
        0x001004ca:    9101        ..      STR      r1,[sp,#4]
        0x001004cc:    d900        ..      BLS      0x1004d0 ; CANFD_GetSegments + 52
        0x001004ce:    058f        ..      LSLS     r7,r1,#22
        0x001004d0:    4630        0F      MOV      r0,r6
        0x001004d2:    f7fffebc    ....    BL       __aeabi_ui2f ; 0x10024e
        0x001004d6:    4601        .F      MOV      r1,r0
        0x001004d8:    4638        8F      MOV      r0,r7
        0x001004da:    f7fffe7b    ..{.    BL       __aeabi_fmul ; 0x1001d4
        0x001004de:    f7fffebd    ....    BL       __aeabi_f2iz ; 0x10025c
        0x001004e2:    1a31        1.      SUBS     r1,r6,r0
        0x001004e4:    71a9        .q      STRB     r1,[r5,#6]
        0x001004e6:    1e40        @.      SUBS     r0,r0,#1
        0x001004e8:    7168        hq      STRB     r0,[r5,#5]
        0x001004ea:    9f04        ..      LDR      r7,[sp,#0x10]
        0x001004ec:    4620         F      MOV      r0,r4
        0x001004ee:    4621        !F      MOV      r1,r4
        0x001004f0:    4622        "F      MOV      r2,r4
        0x001004f2:    b1d7        ..      CBZ      r7,0x10052a ; CANFD_GetSegments + 142
        0x001004f4:    9802        ..      LDR      r0,[sp,#8]
        0x001004f6:    4910        .I      LDR      r1,[pc,#64] ; [0x100538] = 0xc34ff
        0x001004f8:    4288        .B      CMP      r0,r1
        0x001004fa:    d801        ..      BHI      0x100500 ; CANFD_GetSegments + 100
        0x001004fc:    4e10        .N      LDR      r6,[pc,#64] ; [0x100540] = 0x3f600000
        0x001004fe:    e000        ..      B        0x100502 ; CANFD_GetSegments + 102
        0x00100500:    4e0e        .N      LDR      r6,[pc,#56] ; [0x10053c] = 0x3f4ccccd
        0x00100502:    9901        ..      LDR      r1,[sp,#4]
        0x00100504:    4a0f        .J      LDR      r2,[pc,#60] ; [0x100544] = 0xf423f
        0x00100506:    4290        .B      CMP      r0,r2
        0x00100508:    d900        ..      BLS      0x10050c ; CANFD_GetSegments + 112
        0x0010050a:    058e        ..      LSLS     r6,r1,#22
        0x0010050c:    4638        8F      MOV      r0,r7
        0x0010050e:    f7fffe9e    ....    BL       __aeabi_ui2f ; 0x10024e
        0x00100512:    4601        .F      MOV      r1,r0
        0x00100514:    4630        0F      MOV      r0,r6
        0x00100516:    f7fffe5d    ..].    BL       __aeabi_fmul ; 0x1001d4
        0x0010051a:    f7fffe9f    ....    BL       __aeabi_f2iz ; 0x10025c
        0x0010051e:    1a39        9.      SUBS     r1,r7,r0
        0x00100520:    1e40        @.      SUBS     r0,r0,#1
        0x00100522:    1d3a        :.      ADDS     r2,r7,#4
        0x00100524:    9b03        ..      LDR      r3,[sp,#0xc]
        0x00100526:    fbb2f2f3    ....    UDIV     r2,r2,r3
        0x0010052a:    72e9        .r      STRB     r1,[r5,#0xb]
        0x0010052c:    72a8        .r      STRB     r0,[r5,#0xa]
        0x0010052e:    732c        ,s      STRB     r4,[r5,#0xc]
        0x00100530:    726a        jr      STRB     r2,[r5,#9]
        0x00100532:    b005        ..      ADD      sp,sp,#0x14
        0x00100534:    bdf0        ..      POP      {r4-r7,pc}
        0x00100536:    46c0        .F      MOV      r8,r8
    $d.23
    __arm_cp.12_0
        0x00100538:    000c34ff    .4..    DCD    799999
    __arm_cp.12_1
        0x0010053c:    3f4ccccd    ..L?    DCD    1061997773
    __arm_cp.12_2
        0x00100540:    3f600000    ..`?    DCD    1063256064
    __arm_cp.12_3
        0x00100544:    000f423f    ?B..    DCD    999999
    $t.24
    CANFD_InitRxFifo
        0x00100548:    b5b0        ..      PUSH     {r4,r5,r7,lr}
        0x0010054a:    2b40        @+      CMP      r3,#0x40
        0x0010054c:    d802        ..      BHI      0x100554 ; CANFD_InitRxFifo + 12
        0x0010054e:    9d04        ..      LDR      r5,[sp,#0x10]
        0x00100550:    2d40        @-      CMP      r5,#0x40
        0x00100552:    d900        ..      BLS      0x100556 ; CANFD_InitRxFifo + 14
        0x00100554:    bdb0        ..      POP      {r4,r5,r7,pc}
        0x00100556:    4c14        .L      LDR      r4,[pc,#80] ; [0x1005a8] = 0x400200a0
        0x00100558:    b170        p.      CBZ      r0,0x100578 ; CANFD_InitRxFifo + 48
        0x0010055a:    b1fd        ..      CBZ      r5,0x10059c ; CANFD_InitRxFifo + 84
        0x0010055c:    0428        (.      LSLS     r0,r5,#16
        0x0010055e:    4310        .C      ORRS     r0,r0,r2
        0x00100560:    6120         a      STR      r0,[r4,#0x10]
        0x00100562:    69e0        .i      LDR      r0,[r4,#0x1c]
        0x00100564:    2170        p!      MOVS     r1,#0x70
        0x00100566:    4301        .C      ORRS     r1,r1,r0
        0x00100568:    61e1        .a      STR      r1,[r4,#0x1c]
        0x0010056a:    2148        H!      MOVS     r1,#0x48
        0x0010056c:    4369        iC      MULS     r1,r5,r1
        0x0010056e:    480f        .H      LDR      r0,[pc,#60] ; [0x1005ac] = 0xfffc
        0x00100570:    4010        .@      ANDS     r0,r0,r2
        0x00100572:    4a0f        .J      LDR      r2,[pc,#60] ; [0x1005b0] = 0x40020200
        0x00100574:    1880        ..      ADDS     r0,r0,r2
        0x00100576:    e00e        ..      B        0x100596 ; CANFD_InitRxFifo + 78
        0x00100578:    b19b        ..      CBZ      r3,0x1005a2 ; CANFD_InitRxFifo + 90
        0x0010057a:    0418        ..      LSLS     r0,r3,#16
        0x0010057c:    4308        .C      ORRS     r0,r0,r1
        0x0010057e:    6020         `      STR      r0,[r4,#0]
        0x00100580:    69e0        .i      LDR      r0,[r4,#0x1c]
        0x00100582:    2207        ."      MOVS     r2,#7
        0x00100584:    4302        .C      ORRS     r2,r2,r0
        0x00100586:    61e2        .a      STR      r2,[r4,#0x1c]
        0x00100588:    2248        H"      MOVS     r2,#0x48
        0x0010058a:    435a        ZC      MULS     r2,r3,r2
        0x0010058c:    4807        .H      LDR      r0,[pc,#28] ; [0x1005ac] = 0xfffc
        0x0010058e:    4008        .@      ANDS     r0,r0,r1
        0x00100590:    4907        .I      LDR      r1,[pc,#28] ; [0x1005b0] = 0x40020200
        0x00100592:    1840        @.      ADDS     r0,r0,r1
        0x00100594:    4611        .F      MOV      r1,r2
        0x00100596:    f7fffe12    ....    BL       __aeabi_memclr ; 0x1001be
        0x0010059a:    bdb0        ..      POP      {r4,r5,r7,pc}
        0x0010059c:    2000        .       MOVS     r0,#0
        0x0010059e:    6120         a      STR      r0,[r4,#0x10]
        0x001005a0:    bdb0        ..      POP      {r4,r5,r7,pc}
        0x001005a2:    2000        .       MOVS     r0,#0
        0x001005a4:    6020         `      STR      r0,[r4,#0]
        0x001005a6:    bdb0        ..      POP      {r4,r5,r7,pc}
    $d.25
    __arm_cp.13_0
        0x001005a8:    400200a0    ...@    DCD    1073873056
    __arm_cp.13_1
        0x001005ac:    0000fffc    ....    DCD    65532
    __arm_cp.13_2
        0x001005b0:    40020200    ...@    DCD    1073873408
    $t.18
    CLK_SetModuleClock
        0x001005b4:    b5b0        ..      PUSH     {r4,r5,r7,lr}
        0x001005b6:    0a82        ..      LSRS     r2,r0,#10
        0x001005b8:    b2d3        ..      UXTB     r3,r2
        0x001005ba:    4a0f        .J      LDR      r2,[pc,#60] ; [0x1005f8] = 0x40000210
        0x001005bc:    b15b        [.      CBZ      r3,0x1005d6 ; CLK_SetModuleClock + 34
        0x001005be:    0584        ..      LSLS     r4,r0,#22
        0x001005c0:    0ee4        ..      LSRS     r4,r4,#27
        0x001005c2:    40a3        .@      LSLS     r3,r3,r4
        0x001005c4:    0c04        ..      LSRS     r4,r0,#16
        0x001005c6:    250c        .%      MOVS     r5,#0xc
        0x001005c8:    4025        %@      ANDS     r5,r5,r4
        0x001005ca:    a40c        ..      ADR      r4,{pc}+0x32 ; 0x1005fc
        0x001005cc:    5964        dY      LDR      r4,[r4,r5]
        0x001005ce:    1914        ..      ADDS     r4,r2,r4
        0x001005d0:    6925        %i      LDR      r5,[r4,#0x10]
        0x001005d2:    439d        .C      BICS     r5,r5,r3
        0x001005d4:    6125        %a      STR      r5,[r4,#0x10]
        0x001005d6:    0103        ..      LSLS     r3,r0,#4
        0x001005d8:    0f5b        [.      LSRS     r3,r3,#29
        0x001005da:    d00b        ..      BEQ      0x1005f4 ; CLK_SetModuleClock + 64
        0x001005dc:    01c4        ..      LSLS     r4,r0,#7
        0x001005de:    0ee4        ..      LSRS     r4,r4,#27
        0x001005e0:    40a3        .@      LSLS     r3,r3,r4
        0x001005e2:    0e80        ..      LSRS     r0,r0,#26
        0x001005e4:    240c        .$      MOVS     r4,#0xc
        0x001005e6:    4004        .@      ANDS     r4,r4,r0
        0x001005e8:    a006        ..      ADR      r0,{pc}+0x1c ; 0x100604
        0x001005ea:    5900        .Y      LDR      r0,[r0,r4]
        0x001005ec:    5884        .X      LDR      r4,[r0,r2]
        0x001005ee:    439c        .C      BICS     r4,r4,r3
        0x001005f0:    430c        .C      ORRS     r4,r4,r1
        0x001005f2:    5084        .P      STR      r4,[r0,r2]
        0x001005f4:    bdb0        ..      POP      {r4,r5,r7,pc}
        0x001005f6:    46c0        .F      MOV      r8,r8
    $d.19
    __arm_cp.10_0
        0x001005f8:    40000210    ...@    DCD    1073742352
        0x001005fc:    00000000    ....    DCD    0
        0x00100600:    00000004    ....    DCD    4
        0x00100604:    00000000    ....    DCD    0
        0x00100608:    00000004    ....    DCD    4
        0x0010060c:    00000008    ....    DCD    8
        0x00100610:    0000000c    ....    DCD    12
    $t.20
    FMC_Read
        0x00100614:    4909        .I      LDR      r1,[pc,#36] ; [0x10063c] = 0x4000c004
        0x00100616:    2300        .#      MOVS     r3,#0
        0x00100618:    608b        .`      STR      r3,[r1,#8]
        0x0010061a:    6008        .`      STR      r0,[r1,#0]
        0x0010061c:    2001        .       MOVS     r0,#1
        0x0010061e:    60c8        .`      STR      r0,[r1,#0xc]
        0x00100620:    482f        /H      LDR      r0,[pc,#188] ; [0x1006e0] = 0x20000000
        0x00100622:    6800        .h      LDR      r0,[r0,#0]
        0x00100624:    08c0        ..      LSRS     r0,r0,#3
        0x00100626:    1c42        B.      ADDS     r2,r0,#1
        0x00100628:    43d8        .C      MVNS     r0,r3
        0x0010062a:    68cb        .h      LDR      r3,[r1,#0xc]
        0x0010062c:    07db        ..      LSLS     r3,r3,#31
        0x0010062e:    d003        ..      BEQ      0x100638 ; FMC_Read + 36
        0x00100630:    1e52        R.      SUBS     r2,r2,#1
        0x00100632:    2a01        .*      CMP      r2,#1
        0x00100634:    daf9        ..      BGE      0x10062a ; FMC_Read + 22
        0x00100636:    4770        pG      BX       lr
        0x00100638:    6848        Hh      LDR      r0,[r1,#4]
        0x0010063a:    4770        pG      BX       lr
    $d.21
    __arm_cp.11_0
        0x0010063c:    4000c004    ...@    DCD    1073790980
    $t.16
    ProcessHardFault
        0x00100640:    4770        pG      BX       lr
    SH_Return
        0x00100642:    4770        pG      BX       lr
    SystemCoreClockUpdate
        0x00100644:    b5b0        ..      PUSH     {r4,r5,r7,lr}
        0x00100646:    4819        .H      LDR      r0,[pc,#100] ; [0x1006ac] = 0x40000210
        0x00100648:    6802        .h      LDR      r2,[r0,#0]
        0x0010064a:    2107        .!      MOVS     r1,#7
        0x0010064c:    4011        .@      ANDS     r1,r1,r2
        0x0010064e:    6b02        .k      LDR      r2,[r0,#0x30]
        0x00100650:    2305        .#      MOVS     r3,#5
        0x00100652:    041b        ..      LSLS     r3,r3,#16
        0x00100654:    421a        .B      TST      r2,r3
        0x00100656:    d001        ..      BEQ      0x10065c ; SystemCoreClockUpdate + 24
        0x00100658:    2300        .#      MOVS     r3,#0
        0x0010065a:    e016        ..      B        0x10068a ; SystemCoreClockUpdate + 70
        0x0010065c:    0313        ..      LSLS     r3,r2,#12
        0x0010065e:    d501        ..      BPL      0x100664 ; SystemCoreClockUpdate + 32
        0x00100660:    4b14        .K      LDR      r3,[pc,#80] ; [0x1006b4] = 0x16e3600
        0x00100662:    e000        ..      B        0x100666 ; SystemCoreClockUpdate + 34
        0x00100664:    4b12        .K      LDR      r3,[pc,#72] ; [0x1006b0] = 0xb71b00
        0x00100666:    0394        ..      LSLS     r4,r2,#14
        0x00100668:    d40f        ..      BMI      0x10068a ; SystemCoreClockUpdate + 70
        0x0010066a:    4c13        .L      LDR      r4,[pc,#76] ; [0x1006b8] = 0x1ff
        0x0010066c:    4014        .@      ANDS     r4,r4,r2
        0x0010066e:    1ca4        ..      ADDS     r4,r4,#2
        0x00100670:    089b        ..      LSRS     r3,r3,#2
        0x00100672:    4363        cC      MULS     r3,r4,r3
        0x00100674:    0414        ..      LSLS     r4,r2,#16
        0x00100676:    0fa4        ..      LSRS     r4,r4,#30
        0x00100678:    4d10        .M      LDR      r5,[pc,#64] ; [0x1006bc] = 0x100ece
        0x0010067a:    5d2c        ,]      LDRB     r4,[r5,r4]
        0x0010067c:    0492        ..      LSLS     r2,r2,#18
        0x0010067e:    0ed2        ..      LSRS     r2,r2,#27
        0x00100680:    1c92        ..      ADDS     r2,r2,#2
        0x00100682:    4362        bC      MULS     r2,r4,r2
        0x00100684:    fbb3f2f2    ....    UDIV     r2,r3,r2
        0x00100688:    0093        ..      LSLS     r3,r2,#2
        0x0010068a:    2902        .)      CMP      r1,#2
        0x0010068c:    d101        ..      BNE      0x100692 ; SystemCoreClockUpdate + 78
        0x0010068e:    0859        Y.      LSRS     r1,r3,#1
        0x00100690:    e002        ..      B        0x100698 ; SystemCoreClockUpdate + 84
        0x00100692:    0089        ..      LSLS     r1,r1,#2
        0x00100694:    a20a        ..      ADR      r2,{pc}+0x2c ; 0x1006c0
        0x00100696:    5851        QX      LDR      r1,[r2,r1]
        0x00100698:    6900        .i      LDR      r0,[r0,#0x10]
        0x0010069a:    220f        ."      MOVS     r2,#0xf
        0x0010069c:    4002        .@      ANDS     r2,r2,r0
        0x0010069e:    1c50        P.      ADDS     r0,r2,#1
        0x001006a0:    fbb1f0f0    ....    UDIV     r0,r1,r0
        0x001006a4:    490e        .I      LDR      r1,[pc,#56] ; [0x1006e0] = 0x20000000
        0x001006a6:    6008        .`      STR      r0,[r1,#0]
        0x001006a8:    bdb0        ..      POP      {r4,r5,r7,pc}
        0x001006aa:    46c0        .F      MOV      r8,r8
    $d.1
    __arm_cp.0_0
        0x001006ac:    40000210    ...@    DCD    1073742352
    __arm_cp.0_1
        0x001006b0:    00b71b00    ....    DCD    12000000
    __arm_cp.0_2
        0x001006b4:    016e3600    .6n.    DCD    24000000
    __arm_cp.0_3
        0x001006b8:    000001ff    ....    DCD    511
    __arm_cp.0_4
        0x001006bc:    00100ece    ....    DCD    1052366
    gau32ClkSrcTbl
        0x001006c0:    00b71b00    ....    DCD    12000000
        0x001006c4:    00008000    ....    DCD    32768
        0x001006c8:    08954400    .D..    DCD    144000000
        0x001006cc:    00009600    ....    DCD    38400
        0x001006d0:    00000000    ....    DCD    0
        0x001006d4:    00000000    ....    DCD    0
        0x001006d8:    00000000    ....    DCD    0
        0x001006dc:    02dc6c00    .l..    DCD    48000000
    __arm_cp.0_6
        0x001006e0:    20000000    ...     DCD    536870912
    $t.2
    SystemInit
        0x001006e4:    4770        pG      BX       lr
        0x001006e6:    0000        ..      MOVS     r0,r0
    UART0_WriteByte
        0x001006e8:    4902        .I      LDR      r1,[pc,#8] ; [0x1006f4] = 0x40070000
        0x001006ea:    698a        .i      LDR      r2,[r1,#0x18]
        0x001006ec:    0212        ..      LSLS     r2,r2,#8
        0x001006ee:    d4fc        ..      BMI      0x1006ea ; UART0_WriteByte + 2
        0x001006f0:    6008        .`      STR      r0,[r1,#0]
        0x001006f2:    4770        pG      BX       lr
    $d.15
    __arm_cp.7_0
        0x001006f4:    40070000    ...@    DCD    1074200576
    $t.9
    UART0_WriteString
        0x001006f8:    b5b0        ..      PUSH     {r4,r5,r7,lr}
        0x001006fa:    b170        p.      CBZ      r0,0x10071a ; UART0_WriteString + 34
        0x001006fc:    4604        .F      MOV      r4,r0
        0x001006fe:    250d        .%      MOVS     r5,#0xd
        0x00100700:    7820         x      LDRB     r0,[r4,#0]
        0x00100702:    280a        .(      CMP      r0,#0xa
        0x00100704:    d001        ..      BEQ      0x10070a ; UART0_WriteString + 18
        0x00100706:    b920         .      CBNZ     r0,0x100712 ; UART0_WriteString + 26
        0x00100708:    e007        ..      B        0x10071a ; UART0_WriteString + 34
        0x0010070a:    4628        (F      MOV      r0,r5
        0x0010070c:    f7ffffec    ....    BL       UART0_WriteByte ; 0x1006e8
        0x00100710:    7820         x      LDRB     r0,[r4,#0]
        0x00100712:    f7ffffe9    ....    BL       UART0_WriteByte ; 0x1006e8
        0x00100716:    1c64        d.      ADDS     r4,r4,#1
        0x00100718:    e7f2        ..      B        0x100700 ; UART0_WriteString + 8
        0x0010071a:    bdb0        ..      POP      {r4,r5,r7,pc}
    main
        0x0010071c:    b0b2        ..      SUB      sp,sp,#0xc8
        0x0010071e:    ab15        ..      ADD      r3,sp,#0x54
        0x00100720:    3320         3      ADDS     r3,r3,#0x20
        0x00100722:    a815        ..      ADD      r0,sp,#0x54
        0x00100724:    3059        Y0      ADDS     r0,r0,#0x59
        0x00100726:    9013        ..      STR      r0,[sp,#0x4c]
        0x00100728:    4ac5        .J      LDR      r2,[pc,#788] ; [0x100a40] = 0x40000100
        0x0010072a:    48c6        .H      LDR      r0,[pc,#792] ; [0x100a44] = 0xfd239400
        0x0010072c:    2559        Y%      MOVS     r5,#0x59
        0x0010072e:    2616        .&      MOVS     r6,#0x16
        0x00100730:    2488        .$      MOVS     r4,#0x88
        0x00100732:    6015        .`      STR      r5,[r2,#0]
        0x00100734:    6016        .`      STR      r6,[r2,#0]
        0x00100736:    6014        .`      STR      r4,[r2,#0]
        0x00100738:    1c40        @.      ADDS     r0,r0,#1
        0x0010073a:    d202        ..      BCS      0x100742 ; main + 38
        0x0010073c:    6811        .h      LDR      r1,[r2,#0]
        0x0010073e:    2900        .)      CMP      r1,#0
        0x00100740:    d0f7        ..      BEQ      0x100732 ; main + 22
        0x00100742:    48c1        .H      LDR      r0,[pc,#772] ; [0x100a48] = 0x40004140
        0x00100744:    6801        .h      LDR      r1,[r0,#0]
        0x00100746:    22f0        ."      MOVS     r2,#0xf0
        0x00100748:    4391        .C      BICS     r1,r1,r2
        0x0010074a:    6001        .`      STR      r1,[r0,#0]
        0x0010074c:    4fbf        .O      LDR      r7,[pc,#764] ; [0x100a4c] = 0x40000200
        0x0010074e:    6838        8h      LDR      r0,[r7,#0]
        0x00100750:    2104        .!      MOVS     r1,#4
        0x00100752:    4301        .C      ORRS     r1,r1,r0
        0x00100754:    6039        9`      STR      r1,[r7,#0]
        0x00100756:    48be        .H      LDR      r0,[pc,#760] ; [0x100a50] = 0x20000000
        0x00100758:    6800        .h      LDR      r0,[r0,#0]
        0x0010075a:    6d39        9m      LDR      r1,[r7,#0x50]
        0x0010075c:    06c9        ..      LSLS     r1,r1,#27
        0x0010075e:    d402        ..      BMI      0x100766 ; main + 74
        0x00100760:    1e40        @.      SUBS     r0,r0,#1
        0x00100762:    d1fa        ..      BNE      0x10075a ; main + 62
        0x00100764:    e01f        ..      B        0x1007a6 ; main + 138
        0x00100766:    6838        8h      LDR      r0,[r7,#0]
        0x00100768:    2101        .!      MOVS     r1,#1
        0x0010076a:    910e        ..      STR      r1,[sp,#0x38]
        0x0010076c:    4308        .C      ORRS     r0,r0,r1
        0x0010076e:    6038        8`      STR      r0,[r7,#0]
        0x00100770:    48b7        .H      LDR      r0,[pc,#732] ; [0x100a50] = 0x20000000
        0x00100772:    6800        .h      LDR      r0,[r0,#0]
        0x00100774:    6d39        9m      LDR      r1,[r7,#0x50]
        0x00100776:    07c9        ..      LSLS     r1,r1,#31
        0x00100778:    d102        ..      BNE      0x100780 ; main + 100
        0x0010077a:    1e40        @.      SUBS     r0,r0,#1
        0x0010077c:    d1fa        ..      BNE      0x100774 ; main + 88
        0x0010077e:    e012        ..      B        0x1007a6 ; main + 138
        0x00100780:    6938        8i      LDR      r0,[r7,#0x10]
        0x00100782:    2207        ."      MOVS     r2,#7
        0x00100784:    4390        .C      BICS     r0,r0,r2
        0x00100786:    6138        8a      STR      r0,[r7,#0x10]
        0x00100788:    48b2        .H      LDR      r0,[pc,#712] ; [0x100a54] = 0xfffc
        0x0010078a:    1d01        ..      ADDS     r1,r0,#4
        0x0010078c:    6c38        8l      LDR      r0,[r7,#0x40]
        0x0010078e:    910d        ..      STR      r1,[sp,#0x34]
        0x00100790:    4308        .C      ORRS     r0,r0,r1
        0x00100792:    6438        8d      STR      r0,[r7,#0x40]
        0x00100794:    48b0        .H      LDR      r0,[pc,#704] ; [0x100a58] = 0x402e
        0x00100796:    6438        8d      STR      r0,[r7,#0x40]
        0x00100798:    48ad        .H      LDR      r0,[pc,#692] ; [0x100a50] = 0x20000000
        0x0010079a:    6800        .h      LDR      r0,[r0,#0]
        0x0010079c:    6d39        9m      LDR      r1,[r7,#0x50]
        0x0010079e:    0749        I.      LSLS     r1,r1,#29
        0x001007a0:    d402        ..      BMI      0x1007a8 ; main + 140
        0x001007a2:    1e40        @.      SUBS     r0,r0,#1
        0x001007a4:    d1fa        ..      BNE      0x10079c ; main + 128
        0x001007a6:    e7fe        ..      B        0x1007a6 ; main + 138
        0x001007a8:    9205        ..      STR      r2,[sp,#0x14]
        0x001007aa:    9308        ..      STR      r3,[sp,#0x20]
        0x001007ac:    6a38        8j      LDR      r0,[r7,#0x20]
        0x001007ae:    210f        .!      MOVS     r1,#0xf
        0x001007b0:    9104        ..      STR      r1,[sp,#0x10]
        0x001007b2:    4388        .C      BICS     r0,r0,r1
        0x001007b4:    6238        8b      STR      r0,[r7,#0x20]
        0x001007b6:    6938        8i      LDR      r0,[r7,#0x10]
        0x001007b8:    2102        .!      MOVS     r1,#2
        0x001007ba:    9106        ..      STR      r1,[sp,#0x18]
        0x001007bc:    4308        .C      ORRS     r0,r0,r1
        0x001007be:    2105        .!      MOVS     r1,#5
        0x001007c0:    9114        ..      STR      r1,[sp,#0x50]
        0x001007c2:    4388        .C      BICS     r0,r0,r1
        0x001007c4:    6138        8a      STR      r0,[r7,#0x10]
        0x001007c6:    f7ffff3d    ..=.    BL       SystemCoreClockUpdate ; 0x100644
        0x001007ca:    980e        ..      LDR      r0,[sp,#0x38]
        0x001007cc:    0601        ..      LSLS     r1,r0,#24
        0x001007ce:    48a3        .H      LDR      r0,[pc,#652] ; [0x100a5c] = 0x7843c08
        0x001007d0:    f7fffef0    ....    BL       CLK_SetModuleClock ; 0x1005b4
        0x001007d4:    6878        xh      LDR      r0,[r7,#4]
        0x001007d6:    f2401100    @...    MOVW     r1,#0x100
        0x001007da:    4308        .C      ORRS     r0,r0,r1
        0x001007dc:    6078        x`      STR      r0,[r7,#4]
        0x001007de:    68b8        .h      LDR      r0,[r7,#8]
        0x001007e0:    990d        ..      LDR      r1,[sp,#0x34]
        0x001007e2:    4308        .C      ORRS     r0,r0,r1
        0x001007e4:    60b8        .`      STR      r0,[r7,#8]
        0x001007e6:    489e        .H      LDR      r0,[pc,#632] ; [0x100a60] = 0x66003d10
        0x001007e8:    2103        .!      MOVS     r1,#3
        0x001007ea:    9107        ..      STR      r1,[sp,#0x1c]
        0x001007ec:    f7fffee2    ....    BL       CLK_SetModuleClock ; 0x1005b4
        0x001007f0:    4f9c        .O      LDR      r7,[pc,#624] ; [0x100a64] = 0x40000008
        0x001007f2:    6b79        yk      LDR      r1,[r7,#0x34]
        0x001007f4:    489c        .H      LDR      r0,[pc,#624] ; [0x100a68] = 0xfff0ffff
        0x001007f6:    4001        .@      ANDS     r1,r1,r0
        0x001007f8:    980e        ..      LDR      r0,[sp,#0x38]
        0x001007fa:    0442        B.      LSLS     r2,r0,#17
        0x001007fc:    9211        ..      STR      r2,[sp,#0x44]
        0x001007fe:    1889        ..      ADDS     r1,r1,r2
        0x00100800:    6379        yc      STR      r1,[r7,#0x34]
        0x00100802:    6b7a        zk      LDR      r2,[r7,#0x34]
        0x00100804:    4999        .I      LDR      r1,[pc,#612] ; [0x100a6c] = 0xff0fffff
        0x00100806:    400a        .@      ANDS     r2,r2,r1
        0x00100808:    0543        C.      LSLS     r3,r0,#21
        0x0010080a:    18d2        ..      ADDS     r2,r2,r3
        0x0010080c:    637a        zc      STR      r2,[r7,#0x34]
        0x0010080e:    687a        zh      LDR      r2,[r7,#4]
        0x00100810:    9b0d        ..      LDR      r3,[sp,#0x34]
        0x00100812:    431a        .C      ORRS     r2,r2,r3
        0x00100814:    607a        z`      STR      r2,[r7,#4]
        0x00100816:    0402        ..      LSLS     r2,r0,#16
        0x00100818:    687b        {h      LDR      r3,[r7,#4]
        0x0010081a:    4393        .C      BICS     r3,r3,r2
        0x0010081c:    607b        {`      STR      r3,[r7,#4]
        0x0010081e:    4a94        .J      LDR      r2,[pc,#592] ; [0x100a70] = 0x4007000c
        0x00100820:    9807        ..      LDR      r0,[sp,#0x1c]
        0x00100822:    6010        .`      STR      r0,[r2,#0]
        0x00100824:    4b93        .K      LDR      r3,[pc,#588] ; [0x100a74] = 0x3000019f
        0x00100826:    6193        .a      STR      r3,[r2,#0x18]
        0x00100828:    6bba        .k      LDR      r2,[r7,#0x38]
        0x0010082a:    488f        .H      LDR      r0,[pc,#572] ; [0x100a68] = 0xfff0ffff
        0x0010082c:    4002        .@      ANDS     r2,r2,r0
        0x0010082e:    2009        .       MOVS     r0,#9
        0x00100830:    0403        ..      LSLS     r3,r0,#16
        0x00100832:    18d2        ..      ADDS     r2,r2,r3
        0x00100834:    63ba        .c      STR      r2,[r7,#0x38]
        0x00100836:    6bba        .k      LDR      r2,[r7,#0x38]
        0x00100838:    400a        .@      ANDS     r2,r2,r1
        0x0010083a:    0500        ..      LSLS     r0,r0,#20
        0x0010083c:    1810        ..      ADDS     r0,r2,r0
        0x0010083e:    9712        ..      STR      r7,[sp,#0x48]
        0x00100840:    63b8        .c      STR      r0,[r7,#0x38]
        0x00100842:    498d        .I      LDR      r1,[pc,#564] ; [0x100a78] = 0x4000c000
        0x00100844:    6808        .h      LDR      r0,[r1,#0]
        0x00100846:    4328        (C      ORRS     r0,r0,r5
        0x00100848:    6008        .`      STR      r0,[r1,#0]
        0x0010084a:    980e        ..      LDR      r0,[sp,#0x38]
        0x0010084c:    0500        ..      LSLS     r0,r0,#20
        0x0010084e:    498b        .I      LDR      r1,[pc,#556] ; [0x100a7c] = 0xe000ed08
        0x00100850:    6008        .`      STR      r0,[r1,#0]
        0x00100852:    a08b        ..      ADR      r0,{pc}+0x22e ; 0x100a80
        0x00100854:    f7ffff50    ..P.    BL       UART0_WriteString ; 0x1006f8
        0x00100858:    f7fffd5a    ..Z.    BL       App_IsValid ; 0x100310
        0x0010085c:    2800        .(      CMP      r0,#0
        0x0010085e:    d165        e.      BNE      0x10092c ; main + 528
        0x00100860:    a08c        ..      ADR      r0,{pc}+0x234 ; 0x100a94
        0x00100862:    f7ffff49    ..I.    BL       UART0_WriteString ; 0x1006f8
        0x00100866:    497f        .I      LDR      r1,[pc,#508] ; [0x100a64] = 0x40000008
        0x00100868:    6808        .h      LDR      r0,[r1,#0]
        0x0010086a:    f2401200    @...    MOVW     r2,#0x100
        0x0010086e:    4310        .C      ORRS     r0,r0,r2
        0x00100870:    6008        .`      STR      r0,[r1,#0]
        0x00100872:    6808        .h      LDR      r0,[r1,#0]
        0x00100874:    4f8e        .O      LDR      r7,[pc,#568] ; [0x100ab0] = 0xfffffeff
        0x00100876:    4038        8@      ANDS     r0,r0,r7
        0x00100878:    6008        .`      STR      r0,[r1,#0]
        0x0010087a:    a815        ..      ADD      r0,sp,#0x54
        0x0010087c:    1d00        ..      ADDS     r0,r0,#4
        0x0010087e:    216c        l!      MOVS     r1,#0x6c
        0x00100880:    f7fffc9d    ....    BL       __aeabi_memclr ; 0x1001be
        0x00100884:    9907        ..      LDR      r1,[sp,#0x1c]
        0x00100886:    912c        ,.      STR      r1,[sp,#0xb0]
        0x00100888:    200a        .       MOVS     r0,#0xa
        0x0010088a:    9028        (.      STR      r0,[sp,#0xa0]
        0x0010088c:    200c        .       MOVS     r0,#0xc
        0x0010088e:    9027        '.      STR      r0,[sp,#0x9c]
        0x00100890:    f2404000    @..@    MOVW     r0,#0x400
        0x00100894:    9031        1.      STR      r0,[sp,#0xc4]
        0x00100896:    912b        +.      STR      r1,[sp,#0xac]
        0x00100898:    912d        -.      STR      r1,[sp,#0xb4]
        0x0010089a:    912a        *.      STR      r1,[sp,#0xa8]
        0x0010089c:    9129        ).      STR      r1,[sp,#0xa4]
        0x0010089e:    f2401000    @...    MOVW     r0,#0x100
        0x001008a2:    3058        X0      ADDS     r0,r0,#0x58
        0x001008a4:    9023        #.      STR      r0,[sp,#0x8c]
        0x001008a6:    2080        .       MOVS     r0,#0x80
        0x001008a8:    9001        ..      STR      r0,[sp,#4]
        0x001008aa:    9022        ".      STR      r0,[sp,#0x88]
        0x001008ac:    2030        0       MOVS     r0,#0x30
        0x001008ae:    9021        !.      STR      r0,[sp,#0x84]
        0x001008b0:    2000        .       MOVS     r0,#0
        0x001008b2:    9018        ..      STR      r0,[sp,#0x60]
        0x001008b4:    497f        .I      LDR      r1,[pc,#508] ; [0x100ab4] = 0x7a120
        0x001008b6:    9115        ..      STR      r1,[sp,#0x54]
        0x001008b8:    f2402130    @.0!    MOVW     r1,#0x230
        0x001008bc:    9124        $.      STR      r1,[sp,#0x90]
        0x001008be:    f2402230    @.0"    MOVW     r2,#0x230
        0x001008c2:    32f0        .2      ADDS     r2,r2,#0xf0
        0x001008c4:    9226        &.      STR      r2,[sp,#0x98]
        0x001008c6:    31d8        .1      ADDS     r1,r1,#0xd8
        0x001008c8:    9125        %.      STR      r1,[sp,#0x94]
        0x001008ca:    495d        ]I      LDR      r1,[pc,#372] ; [0x100a40] = 0x40000100
        0x001008cc:    680a        .h      LDR      r2,[r1,#0]
        0x001008ce:    990e        ..      LDR      r1,[sp,#0x38]
        0x001008d0:    400a        .@      ANDS     r2,r2,r1
        0x001008d2:    9203        ..      STR      r2,[sp,#0xc]
        0x001008d4:    04c9        ..      LSLS     r1,r1,#19
        0x001008d6:    9110        ..      STR      r1,[sp,#0x40]
        0x001008d8:    495c        \I      LDR      r1,[pc,#368] ; [0x100a4c] = 0x40000200
        0x001008da:    6909        .i      LDR      r1,[r1,#0x10]
        0x001008dc:    0189        ..      LSLS     r1,r1,#6
        0x001008de:    0f89        ..      LSRS     r1,r1,#30
        0x001008e0:    4a75        uJ      LDR      r2,[pc,#468] ; [0x100ab8] = 0xb71b00
        0x001008e2:    d02e        ..      BEQ      0x100942 ; main + 550
        0x001008e4:    2902        .)      CMP      r1,#2
        0x001008e6:    d023        #.      BEQ      0x100930 ; main + 532
        0x001008e8:    2901        .)      CMP      r1,#1
        0x001008ea:    d126        &.      BNE      0x10093a ; main + 542
        0x001008ec:    4957        WI      LDR      r1,[pc,#348] ; [0x100a4c] = 0x40000200
        0x001008ee:    6c09        .l      LDR      r1,[r1,#0x40]
        0x001008f0:    9b14        ..      LDR      r3,[sp,#0x50]
        0x001008f2:    041b        ..      LSLS     r3,r3,#16
        0x001008f4:    4219        .B      TST      r1,r3
        0x001008f6:    d123        #.      BNE      0x100940 ; main + 548
        0x001008f8:    9810        ..      LDR      r0,[sp,#0x40]
        0x001008fa:    4201        .B      TST      r1,r0
        0x001008fc:    d000        ..      BEQ      0x100900 ; main + 484
        0x001008fe:    4a6f        oJ      LDR      r2,[pc,#444] ; [0x100abc] = 0x16e3600
        0x00100900:    9811        ..      LDR      r0,[sp,#0x44]
        0x00100902:    4201        .B      TST      r1,r0
        0x00100904:    d11b        ..      BNE      0x10093e ; main + 546
        0x00100906:    0408        ..      LSLS     r0,r1,#16
        0x00100908:    0f80        ..      LSRS     r0,r0,#30
        0x0010090a:    4b6d        mK      LDR      r3,[pc,#436] ; [0x100ac0] = 0x100ece
        0x0010090c:    5c18        .\      LDRB     r0,[r3,r0]
        0x0010090e:    048b        ..      LSLS     r3,r1,#18
        0x00100910:    0edb        ..      LSRS     r3,r3,#27
        0x00100912:    1c9b        ..      ADDS     r3,r3,#2
        0x00100914:    4343        CC      MULS     r3,r0,r3
        0x00100916:    f2401000    @...    MOVW     r0,#0x100
        0x0010091a:    30ff        .0      ADDS     r0,r0,#0xff
        0x0010091c:    4008        .@      ANDS     r0,r0,r1
        0x0010091e:    1c80        ..      ADDS     r0,r0,#2
        0x00100920:    0891        ..      LSRS     r1,r2,#2
        0x00100922:    4341        AC      MULS     r1,r0,r1
        0x00100924:    fbb1f0f3    ....    UDIV     r0,r1,r3
        0x00100928:    0080        ..      LSLS     r0,r0,#2
        0x0010092a:    e009        ..      B        0x100940 ; main + 548
        0x0010092c:    a065        e.      ADR      r0,{pc}+0x198 ; 0x100ac4
        0x0010092e:    e277        w.      B        0x100e20 ; 0x100e20
        0x00100930:    f7fffe88    ....    BL       SystemCoreClockUpdate ; 0x100644
        0x00100934:    4846        FH      LDR      r0,[pc,#280] ; [0x100a50] = 0x20000000
        0x00100936:    6802        .h      LDR      r2,[r0,#0]
        0x00100938:    e003        ..      B        0x100942 ; main + 550
        0x0010093a:    4a68        hJ      LDR      r2,[pc,#416] ; [0x100adc] = 0x2dc6c00
        0x0010093c:    e001        ..      B        0x100942 ; main + 550
        0x0010093e:    4610        .F      MOV      r0,r2
        0x00100940:    0842        B.      LSRS     r2,r0,#1
        0x00100942:    9803        ..      LDR      r0,[sp,#0xc]
        0x00100944:    493e        >I      LDR      r1,[pc,#248] ; [0x100a40] = 0x40000100
        0x00100946:    4b3f        ?K      LDR      r3,[pc,#252] ; [0x100a44] = 0xfd239400
        0x00100948:    b938        8.      CBNZ     r0,0x10095a ; main + 574
        0x0010094a:    600d        .`      STR      r5,[r1,#0]
        0x0010094c:    600e        .`      STR      r6,[r1,#0]
        0x0010094e:    600c        .`      STR      r4,[r1,#0]
        0x00100950:    1c5b        [.      ADDS     r3,r3,#1
        0x00100952:    d202        ..      BCS      0x10095a ; main + 574
        0x00100954:    6808        .h      LDR      r0,[r1,#0]
        0x00100956:    2800        .(      CMP      r0,#0
        0x00100958:    d0f7        ..      BEQ      0x10094a ; main + 558
        0x0010095a:    493c        <I      LDR      r1,[pc,#240] ; [0x100a4c] = 0x40000200
        0x0010095c:    6848        Hh      LDR      r0,[r1,#4]
        0x0010095e:    f2401300    @...    MOVW     r3,#0x100
        0x00100962:    4318        .C      ORRS     r0,r0,r3
        0x00100964:    6048        H`      STR      r0,[r1,#4]
        0x00100966:    493f        ?I      LDR      r1,[pc,#252] ; [0x100a64] = 0x40000008
        0x00100968:    6808        .h      LDR      r0,[r1,#0]
        0x0010096a:    4318        .C      ORRS     r0,r0,r3
        0x0010096c:    6008        .`      STR      r0,[r1,#0]
        0x0010096e:    6808        .h      LDR      r0,[r1,#0]
        0x00100970:    4038        8@      ANDS     r0,r0,r7
        0x00100972:    6008        .`      STR      r0,[r1,#0]
        0x00100974:    4e5a        ZN      LDR      r6,[pc,#360] ; [0x100ae0] = 0x4002000c
        0x00100976:    980e        ..      LDR      r0,[sp,#0x38]
        0x00100978:    60f0        .`      STR      r0,[r6,#0xc]
        0x0010097a:    68f0        .h      LDR      r0,[r6,#0xc]
        0x0010097c:    9906        ..      LDR      r1,[sp,#0x18]
        0x0010097e:    4308        .C      ORRS     r0,r0,r1
        0x00100980:    60f0        .`      STR      r0,[r6,#0xc]
        0x00100982:    4858        XH      LDR      r0,[pc,#352] ; [0x100ae4] = 0x400200a0
        0x00100984:    2100        .!      MOVS     r1,#0
        0x00100986:    6001        .`      STR      r1,[r0,#0]
        0x00100988:    9114        ..      STR      r1,[sp,#0x50]
        0x0010098a:    6101        .a      STR      r1,[r0,#0x10]
        0x0010098c:    4856        VH      LDR      r0,[pc,#344] ; [0x100ae8] = 0xf4240
        0x0010098e:    9915        ..      LDR      r1,[sp,#0x54]
        0x00100990:    910b        ..      STR      r1,[sp,#0x2c]
        0x00100992:    4281        .B      CMP      r1,r0
        0x00100994:    d300        ..      BCC      0x100998 ; main + 636
        0x00100996:    900b        ..      STR      r0,[sp,#0x2c]
        0x00100998:    9808        ..      LDR      r0,[sp,#0x20]
        0x0010099a:    7807        .x      LDRB     r7,[r0,#0]
        0x0010099c:    a815        ..      ADD      r0,sp,#0x54
        0x0010099e:    7e01        .~      LDRB     r1,[r0,#0x18]
        0x001009a0:    910a        ..      STR      r1,[sp,#0x28]
        0x001009a2:    3018        .0      ADDS     r0,r0,#0x18
        0x001009a4:    9002        ..      STR      r0,[sp,#8]
        0x001009a6:    2014        .       MOVS     r0,#0x14
        0x001009a8:    9b18        ..      LDR      r3,[sp,#0x60]
        0x001009aa:    f2404100    @..A    MOVW     r1,#0x400
        0x001009ae:    2809        .(      CMP      r0,#9
        0x001009b0:    d200        ..      BCS      0x1009b4 ; main + 664
        0x001009b2:    e253        S.      B        0x100e5c ; 0x100e5c
        0x001009b4:    9c0b        ..      LDR      r4,[sp,#0x2c]
        0x001009b6:    9009        ..      STR      r0,[sp,#0x24]
        0x001009b8:    4344        DC      MULS     r4,r0,r4
        0x001009ba:    940f        ..      STR      r4,[sp,#0x3c]
        0x001009bc:    9c0e        ..      LDR      r4,[sp,#0x38]
        0x001009be:    1c48        H.      ADDS     r0,r1,#1
        0x001009c0:    4284        .B      CMP      r4,r0
        0x001009c2:    d034        4.      BEQ      0x100a2e ; main + 786
        0x001009c4:    9411        ..      STR      r4,[sp,#0x44]
        0x001009c6:    4620         F      MOV      r0,r4
        0x001009c8:    9c0f        ..      LDR      r4,[sp,#0x3c]
        0x001009ca:    4360        `C      MULS     r0,r4,r0
        0x001009cc:    fbb2f5f0    ....    UDIV     r5,r2,r0
        0x001009d0:    2d05        .-      CMP      r5,#5
        0x001009d2:    d829        ).      BHI      0x100a28 ; main + 780
        0x001009d4:    4368        hC      MULS     r0,r5,r0
        0x001009d6:    4282        .B      CMP      r2,r0
        0x001009d8:    d126        &.      BNE      0x100a28 ; main + 780
        0x001009da:    68f0        .h      LDR      r0,[r6,#0xc]
        0x001009dc:    f2401100    @...    MOVW     r1,#0x100
        0x001009e0:    4208        .B      TST      r0,r1
        0x001009e2:    d100        ..      BNE      0x1009e6 ; main + 714
        0x001009e4:    e220         .      B        0x100e28 ; 0x100e28
        0x001009e6:    990b        ..      LDR      r1,[sp,#0x2c]
        0x001009e8:    b103        ..      CBZ      r3,0x1009ec ; main + 720
        0x001009ea:    4619        .F      MOV      r1,r3
        0x001009ec:    9811        ..      LDR      r0,[sp,#0x44]
        0x001009ee:    2820         (      CMP      r0,#0x20
        0x001009f0:    d803        ..      BHI      0x1009fa ; main + 734
        0x001009f2:    980b        ..      LDR      r0,[sp,#0x2c]
        0x001009f4:    4281        .B      CMP      r1,r0
        0x001009f6:    d100        ..      BNE      0x1009fa ; main + 734
        0x001009f8:    e223        #.      B        0x100e42 ; 0x100e42
        0x001009fa:    910c        ..      STR      r1,[sp,#0x30]
        0x001009fc:    4369        iC      MULS     r1,r5,r1
        0x001009fe:    2314        .#      MOVS     r3,#0x14
        0x00100a00:    2b09        .+      CMP      r3,#9
        0x00100a02:    d30d        ..      BCC      0x100a20 ; main + 772
        0x00100a04:    461f        .F      MOV      r7,r3
        0x00100a06:    434f        OC      MULS     r7,r1,r7
        0x00100a08:    2401        .$      MOVS     r4,#1
        0x00100a0a:    2c21        !,      CMP      r4,#0x21
        0x00100a0c:    d005        ..      BEQ      0x100a1a ; main + 766
        0x00100a0e:    4620         F      MOV      r0,r4
        0x00100a10:    4378        xC      MULS     r0,r7,r0
        0x00100a12:    4290        .B      CMP      r0,r2
        0x00100a14:    d06c        l.      BEQ      0x100af0 ; 0x100af0
        0x00100a16:    1c64        d.      ADDS     r4,r4,#1
        0x00100a18:    e7f7        ..      B        0x100a0a ; main + 750
        0x00100a1a:    1e5b        [.      SUBS     r3,r3,#1
        0x00100a1c:    2721        !'      MOVS     r7,#0x21
        0x00100a1e:    e7ef        ..      B        0x100a00 ; main + 740
        0x00100a20:    950a        ..      STR      r5,[sp,#0x28]
        0x00100a22:    9b0c        ..      LDR      r3,[sp,#0x30]
        0x00100a24:    f2404100    @..A    MOVW     r1,#0x400
        0x00100a28:    9c11        ..      LDR      r4,[sp,#0x44]
        0x00100a2a:    1c64        d.      ADDS     r4,r4,#1
        0x00100a2c:    e7c7        ..      B        0x1009be ; main + 674
        0x00100a2e:    a815        ..      ADD      r0,sp,#0x54
        0x00100a30:    4c2e        .L      LDR      r4,[pc,#184] ; [0x100aec] = 0x401
        0x00100a32:    8344        D.      STRH     r4,[r0,#0x1a]
        0x00100a34:    9808        ..      LDR      r0,[sp,#0x20]
        0x00100a36:    7007        .p      STRB     r7,[r0,#0]
        0x00100a38:    9809        ..      LDR      r0,[sp,#0x24]
        0x00100a3a:    1e40        @.      SUBS     r0,r0,#1
        0x00100a3c:    e7b7        ..      B        0x1009ae ; main + 658
        0x00100a3e:    46c0        .F      MOV      r8,r8
    $d.6
        0x00100a40:    40000100    ...@    DCD    1073742080
    __arm_cp.3_39
        0x00100a44:    fd239400    ..#.    DCD    4246967296
    __arm_cp.3_40
        0x00100a48:    40004140    @A.@    DCD    1073758528
        0x00100a4c:    40000200    ...@    DCD    1073742336
        0x00100a50:    20000000    ...     DCD    536870912
        0x00100a54:    0000fffc    ....    DCD    65532
    __arm_cp.3_44
        0x00100a58:    0000402e    .@..    DCD    16430
    __arm_cp.3_45
        0x00100a5c:    07843c08    .<..    DCD    126106632
    __arm_cp.3_46
        0x00100a60:    66003d10    .=.f    DCD    1711291664
    __arm_cp.3_47
        0x00100a64:    40000008    ...@    DCD    1073741832
    __arm_cp.3_48
        0x00100a68:    fff0ffff    ....    DCD    4293984255
    __arm_cp.3_49
        0x00100a6c:    ff0fffff    ....    DCD    4279238655
    __arm_cp.3_50
        0x00100a70:    4007000c    ...@    DCD    1074200588
    __arm_cp.3_51
        0x00100a74:    3000019f    ...0    DCD    805306783
        0x00100a78:    4000c000    ...@    DCD    1073790976
    __arm_cp.3_53
        0x00100a7c:    e000ed08    ....    DCD    3758157064
        0x00100a80:    6f6f625b    [boo    DCD    1869570651
        0x00100a84:    6f625d74    t]bo    DCD    1868717428
        0x00100a88:    7320746f    ot s    DCD    1931506799
        0x00100a8c:    74726174    tart    DCD    1953653108
        0x00100a90:    0000000a    ....    DCD    10
        0x00100a94:    6f6f625b    [boo    DCD    1869570651
        0x00100a98:    6e695d74    t]in    DCD    1852398964
        0x00100a9c:    696c6176    vali    DCD    1768710518
        0x00100aa0:    74732c64    d,st    DCD    1953705060
        0x00100aa4:    62207961    ay b    DCD    1646295393
        0x00100aa8:    0a746f6f    oot.    DCD    175402863
        0x00100aac:    00000000    ....    DCD    0
    __arm_cp.3_56
        0x00100ab0:    fffffeff    ....    DCD    4294967039
    __arm_cp.3_57
        0x00100ab4:    0007a120     ...    DCD    500000
    __arm_cp.3_58
        0x00100ab8:    00b71b00    ....    DCD    12000000
    __arm_cp.3_59
        0x00100abc:    016e3600    .6n.    DCD    24000000
    __arm_cp.3_60
        0x00100ac0:    00100ece    ....    DCD    1052366
        0x00100ac4:    6f6f625b    [boo    DCD    1869570651
        0x00100ac8:    61765d74    t]va    DCD    1635147124
        0x00100acc:    2c64696c    lid,    DCD    744778092
        0x00100ad0:    63697571    quic    DCD    1667855729
        0x00100ad4:    756a206b    k ju    DCD    1969889387
        0x00100ad8:    000a706d    mp..    DCD    684141
    __arm_cp.3_62
        0x00100adc:    02dc6c00    .l..    DCD    48000000
    __arm_cp.3_63
        0x00100ae0:    4002000c    ...@    DCD    1073872908
        0x00100ae4:    400200a0    ...@    DCD    1073873056
    __arm_cp.3_65
        0x00100ae8:    000f4240    @B..    DCD    1000000
    __arm_cp.3_66
        0x00100aec:    00000401    ....    DCD    1025
    $t.7
        0x00100af0:    9808        ..      LDR      r0,[sp,#0x20]
        0x00100af2:    7004        .p      STRB     r4,[r0,#0]
        0x00100af4:    a815        ..      ADD      r0,sp,#0x54
        0x00100af6:    7605        .v      STRB     r5,[r0,#0x18]
        0x00100af8:    9911        ..      LDR      r1,[sp,#0x44]
        0x00100afa:    8341        A.      STRH     r1,[r0,#0x1a]
        0x00100afc:    9802        ..      LDR      r0,[sp,#8]
        0x00100afe:    9000        ..      STR      r0,[sp,#0]
        0x00100b00:    980b        ..      LDR      r0,[sp,#0x2c]
        0x00100b02:    990c        ..      LDR      r1,[sp,#0x30]
        0x00100b04:    9a09        ..      LDR      r2,[sp,#0x24]
        0x00100b06:    f7fffcc9    ....    BL       CANFD_GetSegments ; 0x10049c
        0x00100b0a:    4bd7        .K      LDR      r3,[pc,#860] ; [0x100e68] = 0x40000200
        0x00100b0c:    6a59        Yj      LDR      r1,[r3,#0x24]
        0x00100b0e:    9804        ..      LDR      r0,[sp,#0x10]
        0x00100b10:    4381        .C      BICS     r1,r1,r0
        0x00100b12:    a815        ..      ADD      r0,sp,#0x54
        0x00100b14:    7e02        .~      LDRB     r2,[r0,#0x18]
        0x00100b16:    1e52        R.      SUBS     r2,r2,#1
        0x00100b18:    430a        .C      ORRS     r2,r2,r1
        0x00100b1a:    625a        Zb      STR      r2,[r3,#0x24]
        0x00100b1c:    68f1        .h      LDR      r1,[r6,#0xc]
        0x00100b1e:    9a06        ..      LDR      r2,[sp,#0x18]
        0x00100b20:    4311        .C      ORRS     r1,r1,r2
        0x00100b22:    60f1        .`      STR      r1,[r6,#0xc]
        0x00100b24:    7f81        ..      LDRB     r1,[r0,#0x1e]
        0x00100b26:    227f        ."      MOVS     r2,#0x7f
        0x00100b28:    400a        .@      ANDS     r2,r2,r1
        0x00100b2a:    991c        ..      LDR      r1,[sp,#0x70]
        0x00100b2c:    1e49        I.      SUBS     r1,r1,#1
        0x00100b2e:    0649        I.      LSLS     r1,r1,#25
        0x00100b30:    8b43        C.      LDRH     r3,[r0,#0x1a]
        0x00100b32:    05db        ..      LSLS     r3,r3,#23
        0x00100b34:    09db        ..      LSRS     r3,r3,#7
        0x00100b36:    18c9        ..      ADDS     r1,r1,r3
        0x00100b38:    1889        ..      ADDS     r1,r1,r2
        0x00100b3a:    7f42        B.      LDRB     r2,[r0,#0x1d]
        0x00100b3c:    7fc0        ..      LDRB     r0,[r0,#0x1f]
        0x00100b3e:    1880        ..      ADDS     r0,r0,r2
        0x00100b40:    b2c0        ..      UXTB     r0,r0
        0x00100b42:    0200        ..      LSLS     r0,r0,#8
        0x00100b44:    1809        ..      ADDS     r1,r1,r0
        0x00100b46:    48cd        .H      LDR      r0,[pc,#820] ; [0x100e7c] = 0xfffefeef
        0x00100b48:    1809        ..      ADDS     r1,r1,r0
        0x00100b4a:    3110        .1      ADDS     r1,r1,#0x10
        0x00100b4c:    6131        1a      STR      r1,[r6,#0x10]
        0x00100b4e:    68f1        .h      LDR      r1,[r6,#0xc]
        0x00100b50:    f2401200    @...    MOVW     r2,#0x100
        0x00100b54:    4211        .B      TST      r1,r2
        0x00100b56:    d013        ..      BEQ      0x100b80 ; 0x100b80
        0x00100b58:    9b08        ..      LDR      r3,[sp,#0x20]
        0x00100b5a:    7859        Yx      LDRB     r1,[r3,#1]
        0x00100b5c:    9a04        ..      LDR      r2,[sp,#0x10]
        0x00100b5e:    4011        .@      ANDS     r1,r1,r2
        0x00100b60:    781a        .x      LDRB     r2,[r3,#0]
        0x00100b62:    06d2        ..      LSLS     r2,r2,#27
        0x00100b64:    0ad2        ..      LSRS     r2,r2,#11
        0x00100b66:    1810        ..      ADDS     r0,r2,r0
        0x00100b68:    78da        .x      LDRB     r2,[r3,#3]
        0x00100b6a:    0712        ..      LSLS     r2,r2,#28
        0x00100b6c:    0e12        ..      LSRS     r2,r2,#24
        0x00100b6e:    1880        ..      ADDS     r0,r0,r2
        0x00100b70:    1840        @.      ADDS     r0,r0,r1
        0x00100b72:    7899        .x      LDRB     r1,[r3,#2]
        0x00100b74:    791a        .y      LDRB     r2,[r3,#4]
        0x00100b76:    1851        Q.      ADDS     r1,r2,r1
        0x00100b78:    06c9        ..      LSLS     r1,r1,#27
        0x00100b7a:    0cc9        ..      LSRS     r1,r1,#19
        0x00100b7c:    1840        @.      ADDS     r0,r0,r1
        0x00100b7e:    6030        0`      STR      r0,[r6,#0]
        0x00100b80:    48bf        .H      LDR      r0,[pc,#764] ; [0x100e80] = 0xf4241
        0x00100b82:    9918        ..      LDR      r1,[sp,#0x60]
        0x00100b84:    4281        .B      CMP      r1,r0
        0x00100b86:    d314        ..      BCC      0x100bb2 ; 0x100bb2
        0x00100b88:    6830        0h      LDR      r0,[r6,#0]
        0x00100b8a:    6bf1        .k      LDR      r1,[r6,#0x3c]
        0x00100b8c:    f6477200    G..r    MOVW     r2,#0x7f00
        0x00100b90:    4391        .C      BICS     r1,r1,r2
        0x00100b92:    04c0        ..      LSLS     r0,r0,#19
        0x00100b94:    0ec0        ..      LSRS     r0,r0,#27
        0x00100b96:    0202        ..      LSLS     r2,r0,#8
        0x00100b98:    1851        Q.      ADDS     r1,r2,r1
        0x00100b9a:    63f1        .c      STR      r1,[r6,#0x3c]
        0x00100b9c:    6bf1        .k      LDR      r1,[r6,#0x3c]
        0x00100b9e:    227f        ."      MOVS     r2,#0x7f
        0x00100ba0:    4391        .C      BICS     r1,r1,r2
        0x00100ba2:    1840        @.      ADDS     r0,r0,r1
        0x00100ba4:    1c40        @.      ADDS     r0,r0,#1
        0x00100ba6:    63f0        .c      STR      r0,[r6,#0x3c]
        0x00100ba8:    980e        ..      LDR      r0,[sp,#0x38]
        0x00100baa:    05c0        ..      LSLS     r0,r0,#23
        0x00100bac:    6831        1h      LDR      r1,[r6,#0]
        0x00100bae:    4301        .C      ORRS     r1,r1,r0
        0x00100bb0:    6031        1`      STR      r1,[r6,#0]
        0x00100bb2:    4ab1        .J      LDR      r2,[pc,#708] ; [0x100e78] = 0x400200a0
        0x00100bb4:    9805        ..      LDR      r0,[sp,#0x14]
        0x00100bb6:    6290        .b      STR      r0,[r2,#0x28]
        0x00100bb8:    69d0        .i      LDR      r0,[r2,#0x1c]
        0x00100bba:    69d1        .i      LDR      r1,[r2,#0x1c]
        0x00100bbc:    4301        .C      ORRS     r1,r1,r0
        0x00100bbe:    2070        p       MOVS     r0,#0x70
        0x00100bc0:    4308        .C      ORRS     r0,r0,r1
        0x00100bc2:    61d0        .a      STR      r0,[r2,#0x1c]
        0x00100bc4:    9803        ..      LDR      r0,[sp,#0xc]
        0x00100bc6:    b910        ..      CBNZ     r0,0x100bce ; 0x100bce
        0x00100bc8:    9814        ..      LDR      r0,[sp,#0x50]
        0x00100bca:    49a6        .I      LDR      r1,[pc,#664] ; [0x100e64] = 0x40000100
        0x00100bcc:    6008        .`      STR      r0,[r1,#0]
        0x00100bce:    9927        '.      LDR      r1,[sp,#0x9c]
        0x00100bd0:    b159        Y.      CBZ      r1,0x100bea ; 0x100bea
        0x00100bd2:    9820         .      LDR      r0,[sp,#0x80]
        0x00100bd4:    4aa6        .J      LDR      r2,[pc,#664] ; [0x100e70] = 0xfffc
        0x00100bd6:    4010        .@      ANDS     r0,r0,r2
        0x00100bd8:    060a        ..      LSLS     r2,r1,#24
        0x00100bda:    0a12        ..      LSRS     r2,r2,#8
        0x00100bdc:    1812        ..      ADDS     r2,r2,r0
        0x00100bde:    67b2        .g      STR      r2,[r6,#0x78]
        0x00100be0:    4aa8        .J      LDR      r2,[pc,#672] ; [0x100e84] = 0x40020200
        0x00100be2:    1880        ..      ADDS     r0,r0,r2
        0x00100be4:    0089        ..      LSLS     r1,r1,#2
        0x00100be6:    f7fffaea    ....    BL       __aeabi_memclr ; 0x1001be
        0x00100bea:    9928        (.      LDR      r1,[sp,#0xa0]
        0x00100bec:    b159        Y.      CBZ      r1,0x100c06 ; 0x100c06
        0x00100bee:    9821        !.      LDR      r0,[sp,#0x84]
        0x00100bf0:    4a9f        .J      LDR      r2,[pc,#636] ; [0x100e70] = 0xfffc
        0x00100bf2:    4010        .@      ANDS     r0,r0,r2
        0x00100bf4:    060a        ..      LSLS     r2,r1,#24
        0x00100bf6:    0a12        ..      LSRS     r2,r2,#8
        0x00100bf8:    1812        ..      ADDS     r2,r2,r0
        0x00100bfa:    67f2        .g      STR      r2,[r6,#0x7c]
        0x00100bfc:    4aa1        .J      LDR      r2,[pc,#644] ; [0x100e84] = 0x40020200
        0x00100bfe:    1880        ..      ADDS     r0,r0,r2
        0x00100c00:    00c9        ..      LSLS     r1,r1,#3
        0x00100c02:    f7fffadc    ....    BL       __aeabi_memclr ; 0x1001be
        0x00100c06:    982c        ,.      LDR      r0,[sp,#0xb0]
        0x00100c08:    b188        ..      CBZ      r0,0x100c2e ; 0x100c2e
        0x00100c0a:    9a26        &.      LDR      r2,[sp,#0x98]
        0x00100c0c:    4998        .I      LDR      r1,[pc,#608] ; [0x100e70] = 0xfffc
        0x00100c0e:    400a        .@      ANDS     r2,r2,r1
        0x00100c10:    0681        ..      LSLS     r1,r0,#26
        0x00100c12:    0a89        ..      LSRS     r1,r1,#10
        0x00100c14:    1889        ..      ADDS     r1,r1,r2
        0x00100c16:    4b98        .K      LDR      r3,[pc,#608] ; [0x100e78] = 0x400200a0
        0x00100c18:    6219        .b      STR      r1,[r3,#0x20]
        0x00100c1a:    6a99        .j      LDR      r1,[r3,#0x28]
        0x00100c1c:    9c05        ..      LDR      r4,[sp,#0x14]
        0x00100c1e:    4321        !C      ORRS     r1,r1,r4
        0x00100c20:    6299        .b      STR      r1,[r3,#0x28]
        0x00100c22:    2148        H!      MOVS     r1,#0x48
        0x00100c24:    4341        AC      MULS     r1,r0,r1
        0x00100c26:    4897        .H      LDR      r0,[pc,#604] ; [0x100e84] = 0x40020200
        0x00100c28:    1810        ..      ADDS     r0,r2,r0
        0x00100c2a:    f7fffac8    ....    BL       __aeabi_memclr ; 0x1001be
        0x00100c2e:    982b        +.      LDR      r0,[sp,#0xac]
        0x00100c30:    f2407100    @..q    MOVW     r1,#0x700
        0x00100c34:    b168        h.      CBZ      r0,0x100c52 ; 0x100c52
        0x00100c36:    9a24        $.      LDR      r2,[sp,#0x90]
        0x00100c38:    4b8d        .K      LDR      r3,[pc,#564] ; [0x100e70] = 0xfffc
        0x00100c3a:    401a        .@      ANDS     r2,r2,r3
        0x00100c3c:    4c8e        .L      LDR      r4,[pc,#568] ; [0x100e78] = 0x400200a0
        0x00100c3e:    60e2        .`      STR      r2,[r4,#0xc]
        0x00100c40:    69e3        .i      LDR      r3,[r4,#0x1c]
        0x00100c42:    430b        .C      ORRS     r3,r3,r1
        0x00100c44:    61e3        .a      STR      r3,[r4,#0x1c]
        0x00100c46:    2148        H!      MOVS     r1,#0x48
        0x00100c48:    4341        AC      MULS     r1,r0,r1
        0x00100c4a:    488e        .H      LDR      r0,[pc,#568] ; [0x100e84] = 0x40020200
        0x00100c4c:    1810        ..      ADDS     r0,r2,r0
        0x00100c4e:    f7fffab6    ....    BL       __aeabi_memclr ; 0x1001be
        0x00100c52:    9c2a        *.      LDR      r4,[sp,#0xa8]
        0x00100c54:    9d29        ).      LDR      r5,[sp,#0xa4]
        0x00100c56:    b135        5.      CBZ      r5,0x100c66 ; 0x100c66
        0x00100c58:    9a23        #.      LDR      r2,[sp,#0x8c]
        0x00100c5a:    9922        ".      LDR      r1,[sp,#0x88]
        0x00100c5c:    9400        ..      STR      r4,[sp,#0]
        0x00100c5e:    2000        .       MOVS     r0,#0
        0x00100c60:    462b        +F      MOV      r3,r5
        0x00100c62:    f7fffc71    ..q.    BL       CANFD_InitRxFifo ; 0x100548
        0x00100c66:    b134        4.      CBZ      r4,0x100c76 ; 0x100c76
        0x00100c68:    9a23        #.      LDR      r2,[sp,#0x8c]
        0x00100c6a:    9922        ".      LDR      r1,[sp,#0x88]
        0x00100c6c:    9400        ..      STR      r4,[sp,#0]
        0x00100c6e:    2001        .       MOVS     r0,#1
        0x00100c70:    462b        +F      MOV      r3,r5
        0x00100c72:    f7fffc69    ..i.    BL       CANFD_InitRxFifo ; 0x100548
        0x00100c76:    982d        -.      LDR      r0,[sp,#0xb4]
        0x00100c78:    b130        0.      CBZ      r0,0x100c88 ; 0x100c88
        0x00100c7a:    9925        %.      LDR      r1,[sp,#0x94]
        0x00100c7c:    4a7c        |J      LDR      r2,[pc,#496] ; [0x100e70] = 0xfffc
        0x00100c7e:    4011        .@      ANDS     r1,r1,r2
        0x00100c80:    0400        ..      LSLS     r0,r0,#16
        0x00100c82:    1808        ..      ADDS     r0,r1,r0
        0x00100c84:    497c        |I      LDR      r1,[pc,#496] ; [0x100e78] = 0x400200a0
        0x00100c86:    6508        .e      STR      r0,[r1,#0x50]
        0x00100c88:    6f70        po      LDR      r0,[r6,#0x74]
        0x00100c8a:    9907        ..      LDR      r1,[sp,#0x1c]
        0x00100c8c:    4008        .@      ANDS     r0,r0,r1
        0x00100c8e:    6770        pg      STR      r0,[r6,#0x74]
        0x00100c90:    203f        ?       MOVS     r0,#0x3f
        0x00100c92:    6770        pg      STR      r0,[r6,#0x74]
        0x00100c94:    9808        ..      LDR      r0,[sp,#0x20]
        0x00100c96:    7a00        .z      LDRB     r0,[r0,#8]
        0x00100c98:    b138        8.      CBZ      r0,0x100caa ; 0x100caa
        0x00100c9a:    68f0        .h      LDR      r0,[r6,#0xc]
        0x00100c9c:    9901        ..      LDR      r1,[sp,#4]
        0x00100c9e:    4308        .C      ORRS     r0,r0,r1
        0x00100ca0:    60f0        .`      STR      r0,[r6,#0xc]
        0x00100ca2:    6870        ph      LDR      r0,[r6,#4]
        0x00100ca4:    2110        .!      MOVS     r1,#0x10
        0x00100ca6:    4301        .C      ORRS     r1,r1,r0
        0x00100ca8:    6071        q`      STR      r1,[r6,#4]
        0x00100caa:    6fb0        .o      LDR      r0,[r6,#0x78]
        0x00100cac:    4970        pI      LDR      r1,[pc,#448] ; [0x100e70] = 0xfffc
        0x00100cae:    4008        .@      ANDS     r0,r0,r1
        0x00100cb0:    4975        uI      LDR      r1,[pc,#468] ; [0x100e88] = 0x8c8707ff
        0x00100cb2:    4a74        tJ      LDR      r2,[pc,#464] ; [0x100e84] = 0x40020200
        0x00100cb4:    5081        .P      STR      r1,[r0,r2]
        0x00100cb6:    6f70        po      LDR      r0,[r6,#0x74]
        0x00100cb8:    9a07        ..      LDR      r2,[sp,#0x1c]
        0x00100cba:    4010        .@      ANDS     r0,r0,r2
        0x00100cbc:    6770        pg      STR      r0,[r6,#0x74]
        0x00100cbe:    6772        rg      STR      r2,[r6,#0x74]
        0x00100cc0:    6cb0        .l      LDR      r0,[r6,#0x48]
        0x00100cc2:    4972        rI      LDR      r1,[pc,#456] ; [0x100e8c] = 0x40001
        0x00100cc4:    4301        .C      ORRS     r1,r1,r0
        0x00100cc6:    64b1        .d      STR      r1,[r6,#0x48]
        0x00100cc8:    6d30        0m      LDR      r0,[r6,#0x50]
        0x00100cca:    990e        ..      LDR      r1,[sp,#0x38]
        0x00100ccc:    4308        .C      ORRS     r0,r0,r1
        0x00100cce:    6530        0e      STR      r0,[r6,#0x50]
        0x00100cd0:    4969        iI      LDR      r1,[pc,#420] ; [0x100e78] = 0x400200a0
        0x00100cd2:    6c08        .l      LDR      r0,[r1,#0x40]
        0x00100cd4:    6408        .d      STR      r0,[r1,#0x40]
        0x00100cd6:    6c48        Hl      LDR      r0,[r1,#0x44]
        0x00100cd8:    6448        Hd      STR      r0,[r1,#0x44]
        0x00100cda:    486d        mH      LDR      r0,[pc,#436] ; [0x100e90] = 0xe000e104
        0x00100cdc:    990d        ..      LDR      r1,[sp,#0x34]
        0x00100cde:    6001        .`      STR      r1,[r0,#0]
        0x00100ce0:    4862        bH      LDR      r0,[pc,#392] ; [0x100e6c] = 0x20000000
        0x00100ce2:    6800        .h      LDR      r0,[r0,#0]
        0x00100ce4:    68f1        .h      LDR      r1,[r6,#0xc]
        0x00100ce6:    4391        .C      BICS     r1,r1,r2
        0x00100ce8:    60f1        .`      STR      r1,[r6,#0xc]
        0x00100cea:    68f1        .h      LDR      r1,[r6,#0xc]
        0x00100cec:    07c9        ..      LSLS     r1,r1,#31
        0x00100cee:    d001        ..      BEQ      0x100cf4 ; 0x100cf4
        0x00100cf0:    1e40        @.      SUBS     r0,r0,#1
        0x00100cf2:    d1fa        ..      BNE      0x100cea ; 0x100cea
        0x00100cf4:    4f67        gO      LDR      r7,[pc,#412] ; [0x100e94] = 0x20000008
        0x00100cf6:    20b1        .       MOVS     r0,#0xb1
        0x00100cf8:    0604        ..      LSLS     r4,r0,#24
        0x00100cfa:    9812        ..      LDR      r0,[sp,#0x48]
        0x00100cfc:    3808        .8      SUBS     r0,r0,#8
        0x00100cfe:    9012        ..      STR      r0,[sp,#0x48]
        0x00100d00:    2008        .       MOVS     r0,#8
        0x00100d02:    900f        ..      STR      r0,[sp,#0x3c]
        0x00100d04:    2518        .%      MOVS     r5,#0x18
        0x00100d06:    2051        Q       MOVS     r0,#0x51
        0x00100d08:    0640        @.      LSLS     r0,r0,#25
        0x00100d0a:    9011        ..      STR      r0,[sp,#0x44]
        0x00100d0c:    7838        8x      LDRB     r0,[r7,#0]
        0x00100d0e:    2800        .(      CMP      r0,#0
        0x00100d10:    d0fc        ..      BEQ      0x100d0c ; 0x100d0c
        0x00100d12:    9814        ..      LDR      r0,[sp,#0x50]
        0x00100d14:    7038        8p      STRB     r0,[r7,#0]
        0x00100d16:    69f8        .i      LDR      r0,[r7,#0x1c]
        0x00100d18:    42a0        .B      CMP      r0,r4
        0x00100d1a:    d102        ..      BNE      0x100d22 ; 0x100d22
        0x00100d1c:    9812        ..      LDR      r0,[sp,#0x48]
        0x00100d1e:    6800        .h      LDR      r0,[r0,#0]
        0x00100d20:    e006        ..      B        0x100d30 ; 0x100d30
        0x00100d22:    69f8        .i      LDR      r0,[r7,#0x1c]
        0x00100d24:    9911        ..      LDR      r1,[sp,#0x44]
        0x00100d26:    4288        .B      CMP      r0,r1
        0x00100d28:    d12b        +.      BNE      0x100d82 ; 0x100d82
        0x00100d2a:    6a38        8j      LDR      r0,[r7,#0x20]
        0x00100d2c:    f7fffc72    ..r.    BL       FMC_Read ; 0x100614
        0x00100d30:    6238        8b      STR      r0,[r7,#0x20]
        0x00100d32:    9813        ..      LDR      r0,[sp,#0x4c]
        0x00100d34:    9914        ..      LDR      r1,[sp,#0x50]
        0x00100d36:    7041        Ap      STRB     r1,[r0,#1]
        0x00100d38:    7001        .p      STRB     r1,[r0,#0]
        0x00100d3a:    69f8        .i      LDR      r0,[r7,#0x1c]
        0x00100d3c:    901b        ..      STR      r0,[sp,#0x6c]
        0x00100d3e:    6a38        8j      LDR      r0,[r7,#0x20]
        0x00100d40:    901c        ..      STR      r0,[sp,#0x70]
        0x00100d42:    484a        JH      LDR      r0,[pc,#296] ; [0x100e6c] = 0x20000000
        0x00100d44:    6800        .h      LDR      r0,[r0,#0]
        0x00100d46:    494c        LI      LDR      r1,[pc,#304] ; [0x100e78] = 0x400200a0
        0x00100d48:    6ac9        .j      LDR      r1,[r1,#0x2c]
        0x00100d4a:    07c9        ..      LSLS     r1,r1,#31
        0x00100d4c:    d1de        ..      BNE      0x100d0c ; 0x100d0c
        0x00100d4e:    494a        JI      LDR      r1,[pc,#296] ; [0x100e78] = 0x400200a0
        0x00100d50:    6a09        .j      LDR      r1,[r1,#0x20]
        0x00100d52:    b289        ..      UXTH     r1,r1
        0x00100d54:    4a4b        KJ      LDR      r2,[pc,#300] ; [0x100e84] = 0x40020200
        0x00100d56:    4b55        UK      LDR      r3,[pc,#340] ; [0x100eac] = 0x1e100000
        0x00100d58:    508b        .P      STR      r3,[r1,r2]
        0x00100d5a:    1889        ..      ADDS     r1,r1,r2
        0x00100d5c:    9a10        ..      LDR      r2,[sp,#0x40]
        0x00100d5e:    604a        J`      STR      r2,[r1,#4]
        0x00100d60:    9a0f        ..      LDR      r2,[sp,#0x3c]
        0x00100d62:    2a10        .*      CMP      r2,#0x10
        0x00100d64:    d005        ..      BEQ      0x100d72 ; 0x100d72
        0x00100d66:    ab15        ..      ADD      r3,sp,#0x54
        0x00100d68:    189b        ..      ADDS     r3,r3,r2
        0x00100d6a:    691b        .i      LDR      r3,[r3,#0x10]
        0x00100d6c:    508b        .P      STR      r3,[r1,r2]
        0x00100d6e:    1d12        ..      ADDS     r2,r2,#4
        0x00100d70:    e7f7        ..      B        0x100d62 ; 0x100d62
        0x00100d72:    4601        .F      MOV      r1,r0
        0x00100d74:    6bb2        .k      LDR      r2,[r6,#0x38]
        0x00100d76:    402a        *@      ANDS     r2,r2,r5
        0x00100d78:    2a08        .*      CMP      r2,#8
        0x00100d7a:    d00c        ..      BEQ      0x100d96 ; 0x100d96
        0x00100d7c:    1e49        I.      SUBS     r1,r1,#1
        0x00100d7e:    d1f9        ..      BNE      0x100d74 ; 0x100d74
        0x00100d80:    e7c4        ..      B        0x100d0c ; 0x100d0c
        0x00100d82:    20ab        .       MOVS     r0,#0xab
        0x00100d84:    0600        ..      LSLS     r0,r0,#24
        0x00100d86:    69f9        .i      LDR      r1,[r7,#0x1c]
        0x00100d88:    4281        .B      CMP      r1,r0
        0x00100d8a:    d10e        ..      BNE      0x100daa ; 0x100daa
        0x00100d8c:    f7fffac0    ....    BL       App_IsValid ; 0x100310
        0x00100d90:    2800        .(      CMP      r0,#0
        0x00100d92:    d0bb        ..      BEQ      0x100d0c ; 0x100d0c
        0x00100d94:    e043        C.      B        0x100e1e ; 0x100e1e
        0x00100d96:    990e        ..      LDR      r1,[sp,#0x38]
        0x00100d98:    4a37        7J      LDR      r2,[pc,#220] ; [0x100e78] = 0x400200a0
        0x00100d9a:    6311        .c      STR      r1,[r2,#0x30]
        0x00100d9c:    4936        6I      LDR      r1,[pc,#216] ; [0x100e78] = 0x400200a0
        0x00100d9e:    6ac9        .j      LDR      r1,[r1,#0x2c]
        0x00100da0:    07c9        ..      LSLS     r1,r1,#31
        0x00100da2:    d1b3        ..      BNE      0x100d0c ; 0x100d0c
        0x00100da4:    1e40        @.      SUBS     r0,r0,#1
        0x00100da6:    d1f9        ..      BNE      0x100d9c ; 0x100d9c
        0x00100da8:    e7b0        ..      B        0x100d0c ; 0x100d0c
        0x00100daa:    69f8        .i      LDR      r0,[r7,#0x1c]
        0x00100dac:    69f8        .i      LDR      r0,[r7,#0x1c]
        0x00100dae:    990d        ..      LDR      r1,[sp,#0x34]
        0x00100db0:    4288        .B      CMP      r0,r1
        0x00100db2:    d231        1.      BCS      0x100e18 ; 0x100e18
        0x00100db4:    f2407000    @..p    MOVW     r0,#0x700
        0x00100db8:    30ff        .0      ADDS     r0,r0,#0xff
        0x00100dba:    69f9        .i      LDR      r1,[r7,#0x1c]
        0x00100dbc:    4201        .B      TST      r1,r0
        0x00100dbe:    4b2d        -K      LDR      r3,[pc,#180] ; [0x100e74] = 0x4000c000
        0x00100dc0:    d116        ..      BNE      0x100df0 ; 0x100df0
        0x00100dc2:    69f8        .i      LDR      r0,[r7,#0x1c]
        0x00100dc4:    2122        "!      MOVS     r1,#0x22
        0x00100dc6:    60d9        .`      STR      r1,[r3,#0xc]
        0x00100dc8:    6058        X`      STR      r0,[r3,#4]
        0x00100dca:    980e        ..      LDR      r0,[sp,#0x38]
        0x00100dcc:    6118        .a      STR      r0,[r3,#0x10]
        0x00100dce:    4827        'H      LDR      r0,[pc,#156] ; [0x100e6c] = 0x20000000
        0x00100dd0:    6800        .h      LDR      r0,[r0,#0]
        0x00100dd2:    0840        @.      LSRS     r0,r0,#1
        0x00100dd4:    1c40        @.      ADDS     r0,r0,#1
        0x00100dd6:    6919        .i      LDR      r1,[r3,#0x10]
        0x00100dd8:    07c9        ..      LSLS     r1,r1,#31
        0x00100dda:    d002        ..      BEQ      0x100de2 ; 0x100de2
        0x00100ddc:    1e40        @.      SUBS     r0,r0,#1
        0x00100dde:    2800        .(      CMP      r0,#0
        0x00100de0:    dcf9        ..      BGT      0x100dd6 ; 0x100dd6
        0x00100de2:    6818        .h      LDR      r0,[r3,#0]
        0x00100de4:    0640        @.      LSLS     r0,r0,#25
        0x00100de6:    d503        ..      BPL      0x100df0 ; 0x100df0
        0x00100de8:    6818        .h      LDR      r0,[r3,#0]
        0x00100dea:    2140        @!      MOVS     r1,#0x40
        0x00100dec:    4301        .C      ORRS     r1,r1,r0
        0x00100dee:    6019        .`      STR      r1,[r3,#0]
        0x00100df0:    69f8        .i      LDR      r0,[r7,#0x1c]
        0x00100df2:    6a39        9j      LDR      r1,[r7,#0x20]
        0x00100df4:    2221        !"      MOVS     r2,#0x21
        0x00100df6:    60da        .`      STR      r2,[r3,#0xc]
        0x00100df8:    6058        X`      STR      r0,[r3,#4]
        0x00100dfa:    6099        .`      STR      r1,[r3,#8]
        0x00100dfc:    980e        ..      LDR      r0,[sp,#0x38]
        0x00100dfe:    6118        .a      STR      r0,[r3,#0x10]
        0x00100e00:    481a        .H      LDR      r0,[pc,#104] ; [0x100e6c] = 0x20000000
        0x00100e02:    6800        .h      LDR      r0,[r0,#0]
        0x00100e04:    08c0        ..      LSRS     r0,r0,#3
        0x00100e06:    1c40        @.      ADDS     r0,r0,#1
        0x00100e08:    6919        .i      LDR      r1,[r3,#0x10]
        0x00100e0a:    07c9        ..      LSLS     r1,r1,#31
        0x00100e0c:    d002        ..      BEQ      0x100e14 ; 0x100e14
        0x00100e0e:    1e40        @.      SUBS     r0,r0,#1
        0x00100e10:    2800        .(      CMP      r0,#0
        0x00100e12:    dcf9        ..      BGT      0x100e08 ; 0x100e08
        0x00100e14:    69f8        .i      LDR      r0,[r7,#0x1c]
        0x00100e16:    e789        ..      B        0x100d2c ; 0x100d2c
        0x00100e18:    9814        ..      LDR      r0,[sp,#0x50]
        0x00100e1a:    43c0        .C      MVNS     r0,r0
        0x00100e1c:    e788        ..      B        0x100d30 ; 0x100d30
        0x00100e1e:    a01e        ..      ADR      r0,{pc}+0x7a ; 0x100e98
        0x00100e20:    f7fffc6a    ..j.    BL       UART0_WriteString ; 0x1006f8
        0x00100e24:    f7fffabe    ....    BL       Boot_JumpToApplication ; 0x1003a4
        0x00100e28:    9808        ..      LDR      r0,[sp,#0x20]
        0x00100e2a:    9914        ..      LDR      r1,[sp,#0x50]
        0x00100e2c:    7001        .p      STRB     r1,[r0,#0]
        0x00100e2e:    a815        ..      ADD      r0,sp,#0x54
        0x00100e30:    7605        .v      STRB     r5,[r0,#0x18]
        0x00100e32:    9a11        ..      LDR      r2,[sp,#0x44]
        0x00100e34:    8342        B.      STRH     r2,[r0,#0x1a]
        0x00100e36:    9802        ..      LDR      r0,[sp,#8]
        0x00100e38:    9000        ..      STR      r0,[sp,#0]
        0x00100e3a:    980b        ..      LDR      r0,[sp,#0x2c]
        0x00100e3c:    9a09        ..      LDR      r2,[sp,#0x24]
        0x00100e3e:    460b        .F      MOV      r3,r1
        0x00100e40:    e661        a.      B        0x100b06 ; 0x100b06
        0x00100e42:    9808        ..      LDR      r0,[sp,#0x20]
        0x00100e44:    9911        ..      LDR      r1,[sp,#0x44]
        0x00100e46:    7001        .p      STRB     r1,[r0,#0]
        0x00100e48:    a815        ..      ADD      r0,sp,#0x54
        0x00100e4a:    7605        .v      STRB     r5,[r0,#0x18]
        0x00100e4c:    8341        A.      STRH     r1,[r0,#0x1a]
        0x00100e4e:    9802        ..      LDR      r0,[sp,#8]
        0x00100e50:    9000        ..      STR      r0,[sp,#0]
        0x00100e52:    980b        ..      LDR      r0,[sp,#0x2c]
        0x00100e54:    4601        .F      MOV      r1,r0
        0x00100e56:    9a09        ..      LDR      r2,[sp,#0x24]
        0x00100e58:    4613        .F      MOV      r3,r2
        0x00100e5a:    e654        T.      B        0x100b06 ; 0x100b06
        0x00100e5c:    a815        ..      ADD      r0,sp,#0x54
        0x00100e5e:    990a        ..      LDR      r1,[sp,#0x28]
        0x00100e60:    7601        .v      STRB     r1,[r0,#0x18]
        0x00100e62:    e68d        ..      B        0x100b80 ; 0x100b80
    $d.8
        0x00100e64:    40000100    ...@    DCD    1073742080
    __arm_cp.3_3
        0x00100e68:    40000200    ...@    DCD    1073742336
    __arm_cp.3_4
        0x00100e6c:    20000000    ...     DCD    536870912
    __arm_cp.3_5
        0x00100e70:    0000fffc    ....    DCD    65532
    __arm_cp.3_14
        0x00100e74:    4000c000    ...@    DCD    1073790976
    __arm_cp.3_26
        0x00100e78:    400200a0    ...@    DCD    1073873056
    __arm_cp.3_28
        0x00100e7c:    fffefeef    ....    DCD    4294901487
    __arm_cp.3_29
        0x00100e80:    000f4241    AB..    DCD    1000001
    __arm_cp.3_30
        0x00100e84:    40020200    ...@    DCD    1073873408
    __arm_cp.3_31
        0x00100e88:    8c8707ff    ....    DCD    2357659647
    __arm_cp.3_32
        0x00100e8c:    00040001    ....    DCD    262145
    __arm_cp.3_33
        0x00100e90:    e000e104    ....    DCD    3758153988
    __arm_cp.3_34
        0x00100e94:    20000008    ...     DCD    536870920
        0x00100e98:    6f6f625b    [boo    DCD    1869570651
        0x00100e9c:    61765d74    t]va    DCD    1635147124
        0x00100ea0:    2c64696c    lid,    DCD    744778092
        0x00100ea4:    706d756a    jump    DCD    1886221674
        0x00100ea8:    0000000a    ....    DCD    10
    __arm_cp.3_36
        0x00100eac:    1e100000    ....    DCD    504365056
    $t
    i.__scatterload_copy
    __scatterload_copy
        0x00100eb0:    e002        ..      B        0x100eb8 ; __scatterload_copy + 8
        0x00100eb2:    c808        ..      LDM      r0!,{r3}
        0x00100eb4:    1f12        ..      SUBS     r2,r2,#4
        0x00100eb6:    c108        ..      STM      r1!,{r3}
        0x00100eb8:    2a00        .*      CMP      r2,#0
        0x00100eba:    d1fa        ..      BNE      0x100eb2 ; __scatterload_copy + 2
        0x00100ebc:    4770        pG      BX       lr
    i.__scatterload_null
    __scatterload_null
        0x00100ebe:    4770        pG      BX       lr
    i.__scatterload_zeroinit
    __scatterload_zeroinit
        0x00100ec0:    2000        .       MOVS     r0,#0
        0x00100ec2:    e001        ..      B        0x100ec8 ; __scatterload_zeroinit + 8
        0x00100ec4:    c101        ..      STM      r1!,{r0}
        0x00100ec6:    1f12        ..      SUBS     r2,r2,#4
        0x00100ec8:    2a00        .*      CMP      r2,#0
        0x00100eca:    d1fb        ..      BNE      0x100ec4 ; __scatterload_zeroinit + 4
        0x00100ecc:    4770        pG      BX       lr
    $d.realdata
        0x00100ece:    0201        ..      DCW    513
        0x00100ed0:    00000402    ....    DCD    1026
    Region$$Table$$Base
        0x00100ed4:    00100ef4    ....    DCD    1052404
        0x00100ed8:    20000000    ...     DCD    536870912
        0x00100edc:    00000004    ....    DCD    4
        0x00100ee0:    00100eb0    ....    DCD    1052336
        0x00100ee4:    00100ef8    ....    DCD    1052408
        0x00100ee8:    20000008    ...     DCD    536870920
        0x00100eec:    00000468    h...    DCD    1128
        0x00100ef0:    00100ec0    ....    DCD    1052352
    Region$$Table$$Limit

** Section #2 'ER_RW' (SHT_PROGBITS) [SHF_ALLOC + SHF_WRITE]
    Size   : 4 bytes (alignment 4)
    Address: 0x20000000


** Section #3 'ER_ZI' (SHT_NOBITS) [SHF_ALLOC + SHF_WRITE]
    Size   : 1128 bytes (alignment 8)
    Address: 0x20000008


** Section #4 '.debug_abbrev' (SHT_PROGBITS)
    Size   : 1571 bytes


** Section #5 '.debug_aranges' (SHT_PROGBITS)
    Size   : 32 bytes


** Section #6 '.debug_frame' (SHT_PROGBITS)
    Size   : 928 bytes


** Section #7 '.debug_info' (SHT_PROGBITS)
    Size   : 17334 bytes


** Section #8 '.debug_line' (SHT_PROGBITS)
    Size   : 4776 bytes


** Section #9 '.debug_loc' (SHT_PROGBITS)
    Size   : 4284 bytes


** Section #10 '.debug_ranges' (SHT_PROGBITS)
    Size   : 432 bytes


** Section #11 '.debug_str' (SHT_PROGBITS)
    Size   : 6150 bytes


** Section #12 '.symtab' (SHT_SYMTAB)
    Size   : 3872 bytes (alignment 4)
    String table #13 '.strtab'
    Last local symbol no. 149


** Section #13 '.strtab' (SHT_STRTAB)
    Size   : 3300 bytes


** Section #14 '.note' (SHT_NOTE)
    Size   : 28 bytes (alignment 4)


** Section #15 '.comment' (SHT_PROGBITS)
    Size   : 1320 bytes


** Section #16 '.shstrtab' (SHT_STRTAB)
    Size   : 164 bytes


